(dp0
(S'clarinet'
p1
S'trombone'
p2
tp3
(dp4
S'56'
p5
F-1.0130253845813415
sS'LOWEST_NOTE'
p6
F-743.4368984588002
sS'37'
p7
F-0.029794129284021108
sS'62'
p8
F-5.194095667058742
sS'70'
p9
F1.3355828459084211
sS'DIST_BTWN_NOTES_2'
p10
F-75.10604516766374
sS'29'
p11
F0.009403395491710457
sS'60'
p12
F-3.6317492147487878
sS'61'
p13
F-1.4777355265884773
sS'88'
p14
F0.1856549800253637
sS'89'
p15
F0.22795417629528952
sS'64'
p16
F-1.2438938723437856
sS'65'
p17
F-1.4881484261180167
sS'66'
p18
F0.3096566279779187
sS'67'
p19
F-0.3611775580810972
sS'82'
p20
F2.8614634452479044
sS'83'
p21
F0.9443711073722698
sS'80'
p22
F0.5462932285990684
sS'81'
p23
F1.103325703502516
sS'86'
p24
F1.804136536343445
sS'AVG_NOTE_VALUE_2'
p25
F522.063922779722
sS'84'
p26
F1.2356994296000727
sS'85'
p27
F0.3171339695609897
sS'48'
p28
F-2.458616001722832
sS'LOWEST_NOTE_2'
p29
F-1553.1677820197858
sS'63'
p30
F-3.3511596521239246
sS'47'
p31
F-0.44692688315976437
sS'44'
p32
F-0.585412366695069
sS'45'
p33
F-1.5853014439937994
sS'42'
p34
F-0.06069052334799271
sS'43'
p35
F-1.3050259200291354
sS'40'
p36
F-0.15187357440464502
sS'41'
p37
F-0.6090819060997783
sS'35'
p38
F0.056420372950262664
sS'36'
p39
F0.1410509323756564
sS'78'
p40
F0.8105023540436798
sS'HIGHEST_NOTE_2'
p41
F476.22024065267584
sS'DIST_BTWN_NOTES'
p42
F-52.47112866732886
sS'87'
p43
F1.1876382701884876
sS'34'
p44
F0.04231527971269697
sS'77'
p45
F1.1338611817578221
sS'76'
p46
F1.66547405748936
sS'75'
p47
F0.7023555410691793
sS'74'
p48
F1.9326507771505492
sS'73'
p49
F0.6449756664491176
sS'72'
p50
F2.0562296640378523
sS'71'
p51
F1.5182462914981312
sS'68'
p52
F0.27598872016562354
sS'95'
p53
F0.009124408594588093
sS'90'
p54
F0.046837830069020925
sS'93'
p55
F0.05018424727023442
sS'92'
p56
F0.011952516881924629
sS'69'
p57
F1.9362889741992724
sS'94'
p58
F0.013686612891882116
sS'79'
p59
F2.1239553893472896
sS'HIGHEST_NOTE'
p60
F-965.1021861980211
sS'91'
p61
F0.07236731363921757
sS'39'
p62
F0.04073133690380719
sS'38'
p63
F-0.012571281109490098
sS'59'
p64
F-1.0011798745353124
sS'58'
p65
F-3.6541528667295085
sS'55'
p66
F-2.8163604372077518
sS'54'
p67
F-0.8220659629259582
sS'57'
p68
F-4.844469424094254
sS'49'
p69
F-0.8944750333680748
sS'51'
p70
F-1.9609289174538558
sS'50'
p71
F-3.102664863371876
sS'53'
p72
F-2.682619262336617
sS'52'
p73
F-2.3728741241963567
sS'46'
p74
F-5.056413706275578
sS'AVG_NOTE_VALUE'
p75
F-842.3075624864168
sS'32'
p76
F0.009403395491710457
sS'31'
p77
F0.07522716393368366
ss(g2
S'french horn'
p78
tp79
(dp80
g5
F0.8682235880154174
sS'71'
p81
F-0.3956517083466544
sg7
F0.023249158717326107
sS'28'
p82
F-2.4979836830950573e-05
sS'DIST_BTWN_NOTES_2'
p83
F-272.85975165081885
sg12
F1.2697682289144459
sg13
F0.7968659664995532
sg8
F3.7425452499125282
sS'63'
p84
F0.8233421563301062
sg16
F0.5330338988929053
sg17
F-0.6673714169957898
sg18
F0.24136409214659132
sS'67'
p85
F-0.5887495760500641
sS'82'
p86
F-0.39180877323504865
sS'69'
p87
F-0.698032373333398
sS'AVG_NOTE_VALUE_2'
p88
F-2433.965237007825
sS'81'
p89
F-1.073321669725113
sS'86'
p90
F-0.004515588762247074
sS'80'
p91
F-0.011722216311522657
sS'84'
p92
F-0.4213211711907708
sS'85'
p93
F-0.03612471009797659
sg28
F2.0856583567879112
sS'LOWEST_NOTE_2'
p94
F2706.529345869705
sg74
F4.861632490949412
sS'47'
p95
F0.09637562141752759
sg32
F0.42948286305509864
sg33
F1.4539001634090567
sS'42'
p96
F0.06174889260578817
sg35
F1.021901762828132
sg36
F0.12802700130163272
sg37
F0.4635724311910987
sS'35'
p97
F-2.4979836830950573e-05
sS'78'
p98
F-0.2729584142816795
sS'68'
p99
F-0.09463332834380772
sg42
F19.452352910334845
sS'87'
p100
F-0.00015700925536719516
sS'83'
p101
F-0.03160912133572942
sS'77'
p102
F-3.4211326891333482
sS'76'
p103
F-0.9047479656741779
sS'75'
p104
F-0.9225356562068698
sS'74'
p105
F-2.0211749460890127
sS'73'
p106
F-0.25607597028777934
sS'HIGHEST_NOTE_2'
p107
F1107.3650970578367
sg6
F478.0157836789673
sS'70'
p108
F-1.8464368192758207
sS'79'
p109
F-1.7218072884219722
sg60
F617.4957217734878
sS'39'
p110
F0.023249158717326107
sS'38'
p111
F0.046498317434652214
sg64
F0.26745030644392775
sS'58'
p112
F1.4748918476844037
sg66
F1.5710362643592344
sg67
F0.9749549325966197
sg68
F2.833199866895726
sg69
F0.7600208609266875
sg70
F1.4667420926391472
sg71
F2.5906341900340775
sg72
F3.3573657147189744
sg73
F2.737232303798603
sg75
F515.10864293518
sS'72'
p113
F-3.49082071273212
ss(S'viola'
p114
S'oboe'
p115
tp116
(dp117
g6
F455.17951163572127
sS'HIGHEST_NOTE_2'
p118
F2951.5284572242404
sS'60'
p119
F5.701796488687355
sS'68'
p120
F-0.3213809310141997
sS'62'
p121
F7.026201159914294
sS'63'
p122
F1.4726708002719642
sS'64'
p123
F3.484501876424318
sS'65'
p124
F1.3075730184783638
sS'66'
p125
F3.1561058713465417
sS'67'
p126
F3.2133154567859035
sS'82'
p127
F-1.2506035210576187
sS'69'
p128
F-0.8701776879674119
sS'80'
p129
F-1.2003737960727177
sS'81'
p130
F-1.923320455376624
sS'86'
p131
F-0.4466568433562301
sS'AVG_NOTE_VALUE_2'
p132
F-3580.0279599434784
sS'84'
p133
F-0.7641639169127908
sS'85'
p134
F-0.32495834374875704
sS'48'
p135
F0.3100477590840222
sS'LOWEST_NOTE_2'
p136
F-1836.3470815267356
sS'87'
p137
F-0.014246249116807616
sS'78'
p138
F-1.7081428169175945
sg42
F20.58982506920286
sS'49'
p139
F0.0809923145814807
sS'83'
p140
F-0.9951588927445796
sS'77'
p141
F-2.780406063888575
sS'76'
p142
F-3.0197115782035344
sS'75'
p143
F-1.8995918834476742
sS'74'
p144
F-3.416045275699524
sS'73'
p145
F-1.618357443660677
sS'DIST_BTWN_NOTES_2'
p146
F22.5461760980498
sS'71'
p147
F-0.6094167094708375
sS'70'
p148
F-0.3297295336995545
sS'79'
p149
F-2.6755356307510545
sg60
F667.8062553877976
sS'59'
p150
F3.8341079779194858
sS'58'
p151
F3.475174243017831
sS'61'
p152
F1.1207923270831366
sS'55'
p153
F3.686951685805629
sS'54'
p154
F0.6016455719340904
sS'57'
p155
F2.2410517329491206
sS'56'
p156
F1.3904673900192113
sS'51'
p157
F0.5084057072902392
sS'50'
p158
F0.4523643813475187
sS'53'
p159
F1.1138458885775158
sS'52'
p160
F0.73590208610256
sg75
F540.18285836413
sS'72'
p161
F-1.834384955804531
ss(S'flute'
p162
g78
tp163
(dp164
g6
F-330.8650399228728
sS'DIST_BTWN_NOTES_2'
p165
F-788.6722657693703
sS'60'
p166
F-2.4751248268641697
sS'68'
p167
F-0.47056097983320494
sS'62'
p168
F-1.3920914936048785
sS'89'
p169
F0.6074872071399129
sS'64'
p170
F-1.9814264354610598
sS'65'
p171
F-3.8827437905645352
sS'66'
p172
F-1.1718537161913298
sS'67'
p173
F-2.18760976878351
sS'82'
p174
F2.572749133968518
sS'83'
p175
F1.4993247866070718
sS'80'
p176
F0.7815399419047554
sS'81'
p177
F1.913007675466223
sS'86'
p178
F2.2315347561109062
sS'87'
p179
F0.9214580547950064
sS'84'
p180
F2.0661551310962922
sS'85'
p181
F0.8218481040790009
sS'LOWEST_NOTE_2'
p182
F1634.043234090772
sg84
F-1.7416973249537424
sg95
F-0.34912911792276047
sg82
F-0.003770693063718473
sS'40'
p183
F-0.003770693063718473
sg97
F-0.003770693063718473
sS'78'
p184
F1.188012832624228
sg42
F-42.3162516299971
sS'77'
p185
F-2.969121234192047
sS'76'
p186
F0.9256684579063843
sS'75'
p187
F1.5508816650406807
sS'74'
p188
F-0.6926741867979423
sS'73'
p189
F0.32079111023123497
sS'HIGHEST_NOTE_2'
p190
F-504.2589877975644
sS'71'
p191
F0.7682754539771071
sS'70'
p192
F-3.3511117648360167
sS'91'
p193
F0.30165873846852637
sS'90'
p194
F0.32383866716142157
sS'93'
p195
F0.07434706214700978
sS'92'
p196
F0.14187695232965608
sS'69'
p197
F-0.9164785312695705
sS'79'
p198
F2.1007838201480937
sg60
F-486.1570758999543
sS'59'
p199
F-0.9334692109779597
sg112
F-1.8697095839270028
sS'61'
p200
F-0.15600657485786337
sS'55'
p201
F-0.49565275260369956
sS'57'
p202
F-0.4364994528880458
sS'56'
p203
F-0.10458929964497625
sS'51'
p204
F-0.30714084477236253
sS'88'
p205
F1.0024212834877726
sS'53'
p206
F-0.07099190934000078
sS'52'
p207
F-0.3921982084600917
sS'46'
p208
F-0.0817061630074076
sS'AVG_NOTE_VALUE_2'
p209
F273.14746481269077
sg75
F-424.03763674513283
sS'72'
p210
F-5.47725940311592
ss(S'trumpet'
p211
g115
tp212
(dp213
g6
F425.6284348896115
sg118
F-405.9843094050996
sS'60'
p214
F1.9158724947428833
sg120
F-1.0105902322303433
sS'62'
p215
F7.356045617023327
sg122
F3.840530182749836
sS'64'
p216
F2.9657141570859666
sg124
F0.19910458065977582
sg125
F0.4682894849940802
sg126
F1.6338218058828653
sg127
F-2.9371322994229954
sg128
F-1.277548807263584
sg129
F-1.1127461136576893
sg130
F-1.0614252307239849
sg131
F-0.4507238154810255
sg132
F-53.40150740183954
sg133
F-0.4437613527688698
sS'85'
p217
F-0.031991402428715836
sg136
F325.26257342422383
sS'45'
p218
F0.18664237197765715
sg137
F-0.014517321173400223
sg138
F-1.4835208182482171
sg42
F8.441905689960446
sS'83'
p219
F-0.4278649981896324
sg141
F-3.5429628907307555
sg142
F-0.6053780030155702
sg143
F0.034376780540254684
sg144
F-4.000085973419152
sg145
F-1.420346437112868
sg146
F-10.979834907210966
sg147
F-0.8069867373149834
sg148
F5.495302240202953
sg149
F-2.615984256415057
sg60
F531.4957083011832
sS'59'
p220
F0.01815978319979099
sS'58'
p221
F4.065346551972484
sS'61'
p222
F0.00955127769950696
sS'55'
p223
F0.40722054719227135
sS'54'
p224
F0.7150554204225271
sS'57'
p225
F3.465991631592307
sS'50'
p226
F5.3745403976707395
sS'53'
p227
F0.024015725974238837
sg75
F478.7593174971895
sg161
F-0.6030688930940955
ss(g114
g1
tp228
(dp229
g6
F418.48221290818924
sS'70'
p230
F-0.17156814443069726
sg10
F6.379918271952129
sg158
F0.4762292782371153
sg119
F4.187279120792491
sg152
F1.0406946851380485
sg14
F-0.5446504508057493
sg15
F-0.33388440348459714
sg123
F3.3277086435809973
sS'65'
p231
F1.0140904974688802
sS'66'
p232
F2.017309344325055
sg19
F1.6181500448220631
sg20
F-1.5652800034081438
sg21
F-0.9204751915930732
sg22
F-0.7520712826423928
sg23
F-1.6486621947738345
sg24
F-1.4910827221162615
sg25
F-3384.853025048194
sg26
F-1.6714555966319526
sg27
F-0.45819998347016455
sg135
F0.29557059212936565
sg29
F1378.7103244587577
sS'63'
p233
F0.8346692904347811
sg53
F-0.01754876661278836
sS'44'
p234
F-0.039073172101590316
sS'45'
p235
F-0.004103269360273919
sS'42'
p236
F-0.013648612960566091
sS'29'
p237
F-0.006751557415005944
sS'40'
p238
F-0.010345583318340207
sS'87'
p239
F-0.5572134685100371
sS'35'
p240
F-0.040509344490035716
sS'96'
p241
F-0.010274084749938895
sS'36'
p242
F-0.10127336122508923
sS'41'
p243
F-0.030964000889743562
sg40
F-0.8341871361583733
sg41
F2734.5724625940325
sg42
F10.458012640383057
sS'49'
p244
F0.08409198018268887
sS'43'
p245
F-0.03067300462863519
sS'32'
p246
F-0.006751557415005944
sS'34'
p247
F-0.0303820083675268
sg45
F-1.0243798999294569
sg46
F-1.1577805579259253
sg47
F-0.8152135396177438
sg48
F-1.4624234923324049
sS'73'
p248
F-0.4140004806951278
sg50
F-0.6518246888362608
sg51
F-0.09380699394699006
sS'68'
p249
F-0.32483693492080834
sS'91'
p250
F-0.16493427898039797
sg54
F-0.13277031315070575
sg55
F-0.09138117399536663
sg56
F-0.06177808100292965
sg57
F-0.25599428779920874
sg58
F-0.016049065169243617
sg59
F-1.5901290719503867
sg60
F574.306291984947
sS'39'
p251
F-0.050636680612544616
sS'38'
p252
F-0.03375778707502976
sg150
F3.135833068527672
sg151
F1.9533201087324918
sg153
F3.1069015770132937
sg154
F0.5666354687259897
sg155
F2.165687407351405
sg156
F0.70003901294602
sS'51'
p253
F0.2813032544603719
sg121
F5.5346887796433775
sg159
F0.8384306944269438
sg160
F0.6450598081331058
sS'46'
p254
F-0.05764785396310447
sg75
F459.5368990146765
sS'47'
p255
F-0.005438569977464888
sS'31'
p256
F-0.05401245932004755
ss(g114
g162
tp257
(dp258
g6
F588.7133630619381
sg165
F24.578712038342925
sg158
F0.231100500534034
sg119
F5.5851813986174585
sg167
F0.593180018520962
sg168
F7.166455592098011
sg169
F-0.9554986797076048
sg123
F4.445437419851578
sg231
F1.8861090976491879
sg172
F3.4318138994832315
sg173
F4.285120716292758
sg174
F-2.341591789522359
sg175
F-1.249023193074549
sg176
F-1.0162487121560828
sg177
F-2.958234749741869
sg178
F-2.033285155752806
sg179
F-1.13463364457816
sg180
F-2.9093110097279813
sg181
F-1.0089201785883875
sg135
F0.2930240080999644
sg182
F-1575.6058793467182
sg233
F1.6734310481584156
sg184
F-1.3500420875657513
sg42
F23.045532133275405
sg139
F0.14771703122592603
sg185
F-1.9636137363613866
sg186
F-2.095270435829326
sg187
F-0.5406302717514408
sg188
F-0.6869840984641858
sg189
F-0.12203337274294422
sg190
F2607.413708356441
sg191
F-0.10588712400554336
sg192
F0.7996601621967564
sg193
F-0.4231440923372488
sg194
F-0.24715088097711457
sg195
F-0.07143128635321064
sg196
F-0.17688204839599175
sg197
F0.7605576919549113
sS'94'
p259
F-3.165626374098577e-09
sg198
F-3.1476139207934435
sg60
F845.0940813565645
sg150
F3.6752997219812746
sg151
F2.447600507847139
sg152
F1.3934134042390784
sg153
F3.1686145313346827
sg154
F0.46139687204162044
sg155
F2.83516595415652
sg156
F1.336999976114662
sg157
F0.2683294346176406
sg205
F-1.0249707935879995
sg159
F1.1510531886007558
sg160
F0.7377507097230981
sg209
F-3824.00360966149
sg75
F697.5261200530451
sg210
F-0.29983430188329113
ss(g78
g114
tp260
(dp261
S'71'
p262
F-0.8171874668056139
sg83
F18.32061212965406
sg119
F-2.2036323229789168
sg152
F-1.1471941762820352
sg121
F-4.8689345039882435
sg84
F0.9340885920261809
sg123
F-1.8688994278186355
sg231
F1.0160326149764365
sg232
F-1.8311819541116905
sg85
F-0.09981601372946645
sg86
F0.3734619759733975
sS'69'
p263
F-0.13131385520431182
sg88
F3009.395464198345
sg89
F1.0783907997694286
sg90
F0.1316997357116047
sS'80'
p264
F0.017500810053314993
sg92
F0.1438384959329442
sS'85'
p265
F0.07509884342304925
sg135
F-0.1672552458558699
sg94
F897.0053320384317
sg208
F0.17910421976670193
sg95
F0.10213799094802907
sS'45'
p266
F0.8203030746657518
sg82
F0.006099419336319935
sg183
F0.006099419336319935
sS'87'
p267
F0.0030163942461032566
sg97
F0.006099419336319935
sS'78'
p268
F-0.010945187598065804
sg249
F-0.21047508995326544
sg42
F4.380934904348659
sS'49'
p269
F-0.08106212702946998
sS'83'
p270
F0.14482617576994558
sg102
F3.0342794211984
sS'76'
p271
F0.5353892449906303
sg104
F1.2858486964575768
sS'74'
p272
F0.8044515860144598
sg248
F0.056414711255142476
sg107
F-2741.4984837899406
sg6
F-193.61937421813136
sg108
F1.6028947444778705
sg109
F1.723585951624622
sg60
F-261.67175419585095
sg150
F-2.9509416743413803
sg112
F-0.34407851747816354
sg153
F-2.642643389906323
sg154
F-0.8406109462048986
sg155
F-1.9345311883185499
sg156
F-0.9668598105418751
sS'51'
p273
F0.04934333266192719
sg158
F-0.33361137664599705
sg159
F-0.6820487564015296
sg160
F0.18364678436185403
sS'33'
p274
F0.8203030746657518
sg75
F-196.72617224824035
sS'88'
p275
F0.0012289660236858655
sS'72'
p276
F2.6026748833946307
ss(g162
S'violin'
p277
tp278
(dp279
S'56'
p280
F-0.05440212462099627
sg6
F-269.6224845655784
sS'DIST_BTWN_NOTES_2'
p281
F-50.99080603485949
sS'50'
p282
F-2.1003466003118697e-05
sS'60'
p283
F-1.273104606472203
sg174
F1.2267412895445324
sS'62'
p284
F-2.134268043165988
sS'63'
p285
F-2.69705143529062
sS'64'
p286
F-2.1733707780015936
sS'65'
p287
F-1.353149166077664
sS'66'
p288
F-1.5943963016260494
sS'67'
p289
F-1.8423583850680532
sg167
F-0.7898295886807214
sS'83'
p290
F1.511378300213202
sS'AVG_NOTE_VALUE_2'
p291
F4813.4247751046705
sS'81'
p292
F2.1499162005288253
sg178
F2.474713760905295
sg176
F0.2819066570350121
sg180
F2.058642899468361
sg181
F1.4484538742805066
sS'48'
p293
F-1.1158091314156724e-05
sS'LOWEST_NOTE_2'
p294
F3702.991830634599
sS'46'
p295
F-6.5635831259745265e-06
sS'47'
p296
F-1.9690749377923756e-06
sS'44'
p297
F-6.563583125974593e-07
sS'45'
p298
F-3.938149875584751e-06
sS'43'
p299
F-6.5635831259745265e-06
sg179
F0.721110232543167
sS'36'
p300
F-6.563583125974593e-07
sg60
F-441.58262062609504
sg42
F-18.9130535699662
sg169
F0.6677358269334159
sg185
F0.25606693199674013
sS'76'
p301
F0.19737027672330124
sg187
F-1.2575004483566194
sS'74'
p302
F-0.500585363449644
sg189
F-0.7936430978298898
sS'HIGHEST_NOTE_2'
p303
F-4795.027021334006
sS'71'
p304
F-1.5429448007499313
sg192
F-1.42114500042206
sg193
F0.4674693106327023
sg194
F0.4227876880279003
sg195
F0.09218108343925373
sg196
F0.09893045984654648
sS'69'
p305
F-1.9835779513636742
sS'94'
p306
F0.015008106232244233
sS'79'
p307
F1.2667048771850198
sS'78'
p308
F0.12417638164946869
sS'39'
p309
F-6.563583125974593e-07
sS'59'
p310
F-1.5025636409943486
sS'58'
p311
F-0.5422230897525687
sS'61'
p312
F-0.653430932219588
sS'55'
p313
F-0.6092173138176273
sS'54'
p314
F-1.3127166251949186e-06
sS'57'
p315
F-0.7483335943958218
sS'49'
p316
F-5.90722481337712e-06
sS'51'
p317
F-3.2817915629872632e-06
sg205
F1.583958672529983
sS'53'
p318
F-0.009502679832324107
sS'52'
p319
F-2.4285257566105954e-05
sS'41'
p320
F-9.845374688961857e-06
sg75
F-327.9470455855868
sg210
F-1.4446485324720555
ss(S'bassoon'
p321
g2
tp322
(dp323
S'71'
p324
F-3.079677717662823e-07
sg7
F-0.04106145392715684
sS'DIST_BTWN_NOTES_2'
p325
F-27.13937289327879
sS'36'
p326
F4.87954924153301e-08
sS'60'
p327
F0.500770325508401
sS'61'
p328
F0.4120526625908201
sS'62'
p329
F0.16230417729933297
sS'63'
p330
F-1.624342237802814
sS'64'
p331
F0.0007184571580090989
sS'65'
p332
F-1.3571209915066003
sg18
F-0.007696140559865359
sS'67'
p333
F-1.2954430531761334
sS'68'
p334
F-0.4110655411118561
sg87
F-0.7249931879783981
sS'AVG_NOTE_VALUE_2'
p335
F1649.8583906542199
sS'34'
p336
F1.1463153175734985e-07
sS'48'
p337
F-0.8766214992880565
sS'LOWEST_NOTE_2'
p338
F-3814.509825199429
sS'46'
p339
F2.9054722463209077
sS'47'
p340
F1.0968441264490185
sg32
F-0.20939238739494326
sS'45'
p341
F0.9271432293569194
sS'42'
p342
F0.0393627601936607
sS'43'
p343
F-0.47061493091174583
sS'40'
p344
F0.005899834962875197
sS'41'
p345
F-0.6700813878157248
sS'35'
p346
F1.00678067722165e-07
sg42
F-13.096617562786987
sS'49'
p347
F-0.11026600993994361
sS'74'
p348
F-0.13146319243285678
sS'HIGHEST_NOTE_2'
p349
F650.4573505865366
sg6
F33.005549691995135
sS'70'
p350
F-0.29514252742381347
sg60
F85.53409441120391
sg110
F-0.0030151035975043033
sS'38'
p351
F0.013755384317809734
sS'59'
p352
F2.4770611507439586
sS'58'
p353
F0.5027913730231557
sS'55'
p354
F1.2268256429240658
sS'54'
p355
F1.5495776930268559
sS'57'
p356
F2.081996481987503
sS'56'
p357
F0.19830245461342563
sS'51'
p358
F-1.6402587409062448
sS'50'
p359
F-0.5873859538023448
sS'53'
p360
F-1.5218411480549845
sS'52'
p361
F0.6448097681183623
sg75
F98.86237816885662
ss(g162
g321
tp362
(dp363
g191
F1.0876501833313392
sS'37'
p364
F-5.504469514625681e-09
sg325
F-46.99731132873006
sS'36'
p365
F-5.854440109123443e-08
sg327
F-4.826813269137341
sg174
F1.4937120163846527
sg329
F-4.7730443977985635
sg330
F-1.1915486111973816
sg331
F-2.14761528829991
sg332
F-0.7278863760220871
sg172
F-0.23233725801515404
sg173
F0.18375887426909507
sg167
F0.37543616702288307
sg175
F1.686596970933156
sg335
F1418.1232576769853
sg177
F3.0520157533928205
sg178
F2.4021763137653545
sg176
F0.6407298171771364
sg180
F1.892916849218955
sg181
F1.0145342114891118
sg337
F-1.5930790800391632
sg338
F5802.336802373441
sg339
F-6.695970378905921
sS'47'
p366
F-0.8951758973037416
sS'44'
p367
F-0.6638392654051553
sg341
F-2.022010804828857
sg342
F-0.03496796308378858
sg343
F-0.360140059048715
sg344
F-0.0776838086932312
sg179
F0.7340559369309028
sg346
F-8.256704271938478e-09
sg184
F1.692863971193331
sg42
F-35.124367797130226
sg347
F-1.4042508678805474
sg169
F0.46236234984329583
sg336
F-9.351401826396752e-09
sg185
F1.839449943917649
sg186
F2.5546217404121565
sg187
F0.5328441644189691
sg188
F1.739917052835723
sg189
F0.5308074983874075
sg349
F-3448.9585856084514
sg6
F-828.6904290038572
sg192
F0.30489910053467273
sg193
F0.41648807880808636
sg194
F0.36888101110120264
sg195
F0.10373023787420158
sg196
F0.0683379773684947
sg197
F1.2109854578193928
sg259
F0.06451972069607743
sg198
F2.635122180432794
sg60
F-1286.4839940801846
sS'39'
p368
F-0.038308277768238586
sg351
F-0.06605996052883162
sg352
F-3.4972466309395465
sg353
F-5.792612370597055
sg328
F-2.592075710883212
sg354
F-3.958276936495742
sg355
F-2.0244729532089014
sg356
F-6.9541629279675865
sg357
F-1.570068848224861
sg358
F-1.996499506554154
sg359
F-3.7884033717303187
sg360
F-2.6376191342462354
sg361
F-2.8677063756298917
sg345
F-0.25724753556785324
sg75
F-1090.4981923047346
sg205
F1.1260397191545384
sg210
F1.2116264446188163
ss(g162
S'cello'
p369
tp370
(dp371
g6
F-736.2267436525192
sS'37'
p372
F-1.4826969708300082e-08
sg165
F-37.60013804833585
sS'50'
p373
F-6.060941265647353
sS'60'
p374
F-3.32105075765708
sg167
F0.2847578740885057
sg168
F-2.9824236482896853
sg169
F0.667841581406415
sS'64'
p375
F-0.8080796509575932
sS'65'
p376
F-1.6469642257803432
sg172
F-0.5772037262207372
sg173
F-0.9441508244730846
sg174
F1.0743738576358293
sg175
F1.4152892156012853
sg176
F0.7119315835026099
sg177
F2.5221841906590026
sg178
F1.459076449406184
sg179
F0.7266141487423579
sg180
F1.586065259905659
sg181
F1.0929977446152919
sS'48'
p377
F-2.9628454202355115
sg182
F4418.276670262304
sS'63'
p378
F-1.0750317856076648
sS'47'
p379
F-2.001217449727804
sS'44'
p380
F-0.33996418700770625
sS'45'
p381
F-0.29867038165151094
sS'42'
p382
F-0.026930270615068117
sS'43'
p383
F-1.96187913890822
sS'40'
p384
F-0.007898211339062496
sS'41'
p385
F-0.11867216883212034
sS'35'
p386
F-4.89231108460915e-09
sS'36'
p387
F-0.005727832517331574
sg184
F2.0033943890072305
sg42
F-29.47064427931709
sS'49'
p388
F-0.5018276870751657
sg185
F1.136620931471743
sg186
F2.7213380184611022
sg187
F0.5957179543019064
sg188
F1.5711505662468774
sg189
F0.6476489449584476
sg190
F-2933.3058732176496
sg191
F0.9897617067394898
sg192
F-0.03933333862909342
sg193
F0.4086634276703568
sg194
F0.301797637631804
sg195
F0.09955616883674606
sg196
F0.23118835446370087
sg197
F0.3459797023396599
sg259
F0.03684296334796992
sg198
F2.1634414148041543
sg60
F-1098.0674780814625
sS'39'
p389
F-0.00328227141674361
sS'38'
p390
F-0.007633786196619807
sS'59'
p391
F-1.6042153781924828
sS'58'
p392
F-4.142976500530806
sS'61'
p393
F-0.3911409752278537
sS'55'
p394
F-6.828650266449364
sS'54'
p395
F-3.306792336548512
sS'57'
p396
F-3.4580381986582864
sS'56'
p397
F-0.8931012161249434
sS'51'
p398
F-1.6595056358063975
sg205
F1.0068426571556564
sS'53'
p399
F-2.819427991954886
sS'52'
p400
F-3.593057725019145
sS'46'
p401
F-1.144204684290777
sg209
F3853.856690978872
sg75
F-906.89014869898
sg210
F0.5106126251197327
ss(g114
g211
tp402
(dp403
g6
F45.07089534574039
sS'HIGHEST_NOTE_2'
p404
F2513.2437102419262
sg214
F2.812923496110778
sg152
F1.0462615310345618
sg121
F1.1816621318535656
sS'63'
p405
F-0.9342833110740896
sg216
F1.294937710145117
sS'65'
p406
F1.0923469177255338
sg232
F2.6537207842131294
sS'67'
p407
F1.7246854394092797
sg249
F0.7519188410606487
sS'69'
p408
F0.3293739321502383
sS'AVG_NOTE_VALUE_2'
p409
F-1789.1966447140776
sS'81'
p410
F-0.5016794778856623
sg264
F1.574205072409695e-10
sS'DIST_BTWN_NOTES_2'
p411
F-4.904855449569862
sS'85'
p412
F-0.11305453177927986
sg135
F0.17672891367108948
sS'LOWEST_NOTE_2'
p413
F-2391.873241666139
sS'82'
p414
F3.934223771824221e-09
sg218
F-0.3836256236414856
sS'84'
p415
F4.917779714780276e-10
sS'78'
p416
F-0.19715071564692668
sg42
F2.932829985818886
sS'49'
p417
F0.057799910898043406
sS'83'
p418
F-0.13071930236979218
sS'77'
p419
F-1.0465945776720431
sS'76'
p420
F-1.8389939968021765
sS'75'
p421
F-1.4019072743511083
sS'74'
p422
F-0.5984048847251326
sg248
F0.1763108898705827
sS'72'
p423
F-1.083647786826656
sS'71'
p424
F0.7691502623538387
sS'70'
p425
F-3.4780029109229895
sS'79'
p426
F-0.4345286542470396
sg60
F101.84099618548223
sg150
F4.0027000227585745
sg151
F0.1450437976552276
sg153
F2.896739293399217
sg154
F-1.2756382297953675
sg225
F-3.8088924520711793
sg156
F1.0652601346397974
sS'51'
p427
F0.24165610280264332
sg158
F-4.592943729113672
sg227
F0.892293244336451
sg160
F0.6308831258707681
sg75
F65.05733511097606
ss(g277
g369
tp428
(dp429
g6
F-503.80567812750945
sS'37'
p430
F-0.01626203531256186
sg281
F-21.36293793883829
sS'36'
p431
F-0.08417652681992038
sg283
F-1.9688150025392313
sg393
F-0.2873035916294114
sg284
F-1.2880674707635258
sg285
F0.39211973613700357
sg286
F0.20128067166961183
sg376
F0.10815872252278538
sg288
F-0.1388083849045775
sg289
F0.5278471207217732
sS'68'
p432
F0.7525469576203478
sg290
F0.4507939491176817
sg291
F1839.1673065102682
sg292
F1.1384916960802542
sS'86'
p433
F0.30821923652581906
sS'80'
p434
F0.6511351337076096
sS'84'
p435
F0.4687936749846173
sS'85'
p436
F0.13742217152827746
sg377
F-2.9057869895746586
sg294
F2030.6516693659448
sg401
F-1.7030795048580158
sS'47'
p437
F-2.0287288801985315
sS'82'
p438
F0.6673200993643001
sg381
F-1.0624661366399593
sS'42'
p439
F-0.15576371745947068
sS'43'
p440
F-1.7110623840988142
sS'40'
p441
F-0.17438019184536954
sS'41'
p442
F-0.5008488245070736
sg386
F-1.1232874242594099e-12
sg60
F-830.8953043646382
sg42
F-19.044311374844646
sS'87'
p443
F0.11305014249828575
sS'49'
p444
F-0.5486231719434125
sS'89'
p445
F0.04759276209939634
sS'77'
p446
F1.2559089127197658
sg301
F1.52623530930655
sS'75'
p447
F1.366194279087802
sg302
F2.099293497924513
sS'73'
p448
F0.9761352381557276
sg303
F-1417.5088328104578
sg304
F1.329991092844763
sS'70'
p449
F1.3296481539237504
sS'91'
p450
F0.020839734999368434
sS'90'
p451
F0.0072656433851994
sS'93'
p452
F0.004524697204945315
sS'92'
p453
F1.3338686628811862e-12
sg305
F1.189771433222033
sg306
F1.1115572190676547e-12
sg307
F1.7443460094586236
sg308
F1.1855552482389624
sS'39'
p454
F-0.1703336913498732
sS'38'
p455
F-0.42356402591008985
sg310
F-0.7844787226754004
sg392
F-3.1263225592279147
sg313
F-5.023158853800451
sg395
F-2.702881627996436
sg315
F-2.728997312053661
sg397
F-0.8072442860899057
sg398
F-1.9986928316919321
sg373
F-4.949447638821472
sg399
F-3.3847943753461402
sg400
F-2.9646796807056073
sg75
F-668.1252687412455
sS'88'
p456
F0.05599419731908474
sS'44'
p457
F-0.33655878722423155
sS'72'
p458
F1.4471681539117844
ss(g369
g78
tp459
(dp460
S'71'
p461
F-0.010242424225761314
sg430
F0.009695820184568677
sg82
F-0.007567625478513428
sg83
F6.783516540378541
sS'36'
p462
F0.09410539994594469
sg374
F0.29075134970728433
sg393
F0.29975121903800495
sS'62'
p463
F1.777918980446087
sg84
F-1.2508434736527823
sg375
F-1.0249942781527972
sg376
F-1.866290239169242
sS'66'
p464
F0.00962412564189806
sg85
F-1.512723267602676
sg86
F-0.2655687693085389
sS'69'
p465
F-0.4204361888631351
sg88
F-2522.571593470476
sg89
F-0.8269766303624174
sg90
F-0.00622764478811519
sg91
F-0.018401257198984645
sg92
F-0.19749198022750858
sg93
F-0.04982115830492152
sg377
F2.392791921489237
sg94
F-2084.8752607311258
sg401
F0.5532824774571743
sg95
F1.562285098334054
sS'44'
p466
F0.1903211830587721
sg381
F-0.042350206305005675
sg439
F0.06803413380203249
sS'43'
p467
F1.7449184938914708
sS'40'
p468
F0.0952702611213115
sS'41'
p469
F0.2852652021379749
sg97
F-0.007567625478513428
sS'78'
p470
F-0.07047799284912729
sg432
F-0.4764097038863374
sg42
F8.301670606940519
sg100
F-0.003340564988933466
sS'49'
p471
F0.3014820026281505
sg101
F-0.04359351351680637
sg102
F-2.058667973765851
sS'76'
p472
F-0.7696341019891396
sg104
F-0.9043287648520474
sS'74'
p473
F-0.8762432555213285
sS'73'
p474
F-0.33146783780297556
sg107
F2209.9015489751637
sg6
F337.02726304306117
sg108
F-1.4565255829987023
sg109
F-1.0774693991732203
sg60
F497.31769790350194
sg454
F0.03998275937854545
sS'38'
p475
F0.2704403735804897
sg391
F0.7832117497157307
sg112
F0.7500167517228329
sg394
F4.734036050236649
sg395
F2.994310928373322
sg396
F3.0161381556347386
sg397
F0.21821083906667646
sg398
F0.5961110893279459
sg373
F5.075621018717572
sg399
F1.897539314457374
sg400
F2.125439429479799
sS'33'
p476
F-0.8295496167729324
sg75
F398.85746996288225
sg458
F-1.8588417260080508
ss(g321
g114
tp477
(dp478
S'71'
p479
F-1.0419663280011096
sg364
F0.010928381838098626
sg325
F20.730599104194663
sg365
F0.03912798552028207
sg327
F-0.2940075025756006
sS'61'
p480
F0.3966235860821221
sg329
F-0.38827624336004113
sg330
F-0.8237308188227801
sg331
F-0.980512974584476
sg332
F-1.1562436379716303
sg232
F-1.246830654032604
sS'67'
p481
F-1.8161600631383428
sS'68'
p482
F-0.8948247613992685
sS'69'
p483
F-1.6199626910158578
sg335
F3330.5395703591666
sS'34'
p484
F0.0138101925824345
sg264
F-0.0029779368944397736
sS'84'
p485
F-0.004647719164662692
sS'81'
p486
F-0.06514983766654461
sg337
F0.8826869567365194
sg338
F-3957.9488613700673
sg339
F4.438825967329851
sg340
F1.0754868134544455
sg367
F0.38057375228317336
sg341
F1.9107273363599597
sg342
F0.0816668437581145
sS'43'
p487
F0.7547831373325256
sg344
F0.16032992505666502
sS'41'
p488
F0.3462160920263771
sS'82'
p489
F-0.03718175331730154
sS'78'
p490
F-0.021546982010647735
sg42
F14.583402840771951
sS'49'
p491
F0.8954494635048822
sg346
F0.01639257275714792
sS'77'
p492
F-0.20002626153967473
sS'76'
p493
F-0.2813753727202085
sS'75'
p494
F-0.2875150864485508
sS'74'
p495
F-0.5380653319453311
sS'73'
p496
F-0.3598758413988832
sg349
F-596.416113549221
sg6
F253.4327769518819
sS'70'
p497
F-1.1074926240594254
sS'79'
p498
F-0.16702852047711092
sg60
F446.19797253443306
sg368
F0.07869064682984679
sS'38'
p499
F0.15468575947856147
sg150
F1.030882758237629
sg353
F0.975875300327582
sg354
F1.3069663416395798
sg355
F2.1125820021028874
sg356
F3.198830432964719
sg357
F-0.29592885398072494
sg358
F1.1090591231353648
sg359
F3.1026525751252594
sg360
F0.6762342499556652
sg361
F2.722691646532714
sg75
F406.58528701067524
sS'72'
p500
F-1.041469019514704
ss(g115
g2
tp501
(dp502
g5
F-1.0319427890708612
sg6
F-688.0968445929467
sg7
F-0.026021263435082587
sg118
F-650.8619104477401
sg12
F-3.471793061114876
sg120
F0.2240077894603468
sg8
F-4.701965330698842
sg122
F-3.309356780809667
sg16
F-1.5367808136944587
sg124
F-3.4244823697714826
sg125
F-0.9431456043764914
sg126
F-1.0755603348078553
sg127
F1.588056661662673
sg128
F0.3131573212549463
sg129
F1.2039886057041085
sg130
F1.4174620155541753
sg131
F0.4352373903615447
sg132
F1939.651259653651
sg133
F0.570275835767954
sS'85'
p503
F0.16103188316230532
sg28
F-1.9448472893666886
sg136
F458.27458721614414
sg74
F-6.381358722008688
sg31
F-0.5198057745215903
sg32
F-0.38254264837926794
sg33
F-0.9130592224067569
sg96
F-0.069003746125541
sg35
F-0.8140071044477735
sg36
F-0.13404657400302789
sg37
F-0.479227497926847
sg138
F1.9071084167672194
sg42
F-57.00746430328506
sg137
F0.0033523263120549852
sg140
F0.8295992717873122
sg141
F2.874423895408636
sg142
F2.0928060130100383
sg143
F3.39397092905063
sg144
F4.133875008796236
sg145
F1.4079006329282095
sg146
F-94.9364268679494
sg147
F1.2321520506307144
sg148
F1.4524870586269747
sg149
F3.20524585582818
sg60
F-928.8889620312573
sg110
F-0.026021263435082587
sg111
F-0.052042526870165175
sg64
F-1.3535504009618609
sg65
F-3.480006445152845
sg13
F-1.117974125209765
sg66
F-2.630440260761262
sg67
F-1.1164842166161202
sg68
F-3.9649126459137523
sg69
F-0.6895451194124375
sg70
F-1.7669355097599573
sg71
F-2.8089516873582014
sg72
F-3.4829423847178203
sg73
F-2.6945680367252924
sg75
F-798.1270474668146
sg161
F1.940318940759783
ss(g211
g321
tp504
(dp505
g424
F0.29589963763617183
sg364
F-3.596330190702319e-08
sg325
F-17.511729650018264
sS'36'
p506
F-1.4398827284705297e-07
sg327
F-1.0666934860527253
sg328
F-2.1524409041798576
sg329
F1.0119443519632894
sg330
F1.3373656358698331
sg331
F1.2469929091690337
sg332
F-0.24907523785318628
sS'66'
p507
F0.11990533524544884
sg407
F2.2779046836830323
sS'68'
p508
F-0.011624413896138911
sg408
F0.9513212836435835
sg335
F-1300.0226625798316
sg336
F-4.1957185558193725e-08
sg337
F-1.2225761384018432
sg338
F4580.291626968523
sg339
F-7.077720112765306
sg340
F-1.2713010663877324
sS'44'
p509
F-0.6708151317164952
sg341
F-1.4539318513017008
sg342
F-0.06860204719418261
sg343
F-0.4058753622211401
sg344
F-0.08630527914303687
sg345
F-0.14652607555769828
sg346
F-5.39449528605343e-08
sS'78'
p510
F2.3020636949790415e-06
sg42
F-13.187580631663264
sg347
F-1.2385500267149292
sg419
F0.9351157380539137
sg420
F1.2820447914668658
sg421
F1.668707116430296
sg422
F0.7478124654237062
sS'73'
p511
F0.011595382672840979
sg349
F-1175.6253843794793
sg6
F-294.35830114729663
sg425
F2.7527123458358362
sg426
F0.33419625651966717
sg60
F-482.06829764641697
sS'39'
p512
F-0.04737787111031137
sg351
F-0.09800285073145767
sg352
F-3.1544160352674195
sg353
F-3.8964125089519728
sg354
F-2.4984799661308563
sg355
F-0.3570072180134043
sg356
F1.1210048532589743
sg357
F-1.6978644903941786
sg358
F-1.8792453600689147
sg359
F2.3743275055406086
sg360
F-2.2593781225140055
sg361
F-2.6128348311491503
sg75
F-428.1864391894293
sg423
F2.9029167117141443
ss(g78
g2
tp513
(dp514
g5
F-0.8682235880154174
sg81
F0.3956517083466544
sg7
F-0.023249158717326107
sg82
F2.4979836830950573e-05
sg83
F272.85975165081885
sg12
F-1.2697682289144459
sg13
F-0.7968659664995532
sg8
F-3.7425452499125282
sg84
F-0.8233421563301062
sg16
F-0.5330338988929053
sg17
F0.6673714169957898
sg18
F-0.24136409214659132
sg85
F0.5887495760500641
sg86
F0.39180877323504865
sg87
F0.698032373333398
sg88
F2433.965237007825
sg89
F1.073321669725113
sg90
F0.004515588762247074
sg91
F0.011722216311522657
sg92
F0.4213211711907708
sg93
F0.03612471009797659
sg28
F-2.0856583567879112
sg94
F-2706.529345869705
sg74
F-4.861632490949412
sg95
F-0.09637562141752759
sg32
F-0.42948286305509864
sg33
F-1.4539001634090567
sg96
F-0.06174889260578817
sg35
F-1.021901762828132
sg36
F-0.12802700130163272
sg37
F-0.4635724311910987
sg97
F2.4979836830950573e-05
sg98
F0.2729584142816795
sg99
F0.09463332834380772
sg42
F-19.452352910334845
sg100
F0.00015700925536719516
sg101
F0.03160912133572942
sg102
F3.4211326891333482
sg103
F0.9047479656741779
sg104
F0.9225356562068698
sg105
F2.0211749460890127
sg106
F0.25607597028777934
sg107
F-1107.3650970578367
sg6
F-478.0157836789673
sg108
F1.8464368192758207
sg109
F1.7218072884219722
sg60
F-617.4957217734878
sg110
F-0.023249158717326107
sg111
F-0.046498317434652214
sg64
F-0.26745030644392775
sg112
F-1.4748918476844037
sg66
F-1.5710362643592344
sg67
F-0.9749549325966197
sg68
F-2.833199866895726
sg69
F-0.7600208609266875
sg70
F-1.4667420926391472
sg71
F-2.5906341900340775
sg72
F-3.3573657147189744
sg73
F-2.737232303798603
sg75
F-515.10864293518
sg113
F3.49082071273212
ss(g114
g321
tp515
(dp516
g479
F1.0419663280011096
sg364
F-0.010928381838098626
sg325
F-20.730599104194663
sg365
F-0.03912798552028207
sg327
F0.2940075025756006
sg480
F-0.3966235860821221
sg329
F0.38827624336004113
sg330
F0.8237308188227801
sg331
F0.980512974584476
sg332
F1.1562436379716303
sg232
F1.246830654032604
sg481
F1.8161600631383428
sg482
F0.8948247613992685
sg483
F1.6199626910158578
sg335
F-3330.5395703591666
sg484
F-0.0138101925824345
sg264
F0.0029779368944397736
sg485
F0.004647719164662692
sg486
F0.06514983766654461
sg337
F-0.8826869567365194
sg338
F3957.9488613700673
sg339
F-4.438825967329851
sg340
F-1.0754868134544455
sg367
F-0.38057375228317336
sg341
F-1.9107273363599597
sg342
F-0.0816668437581145
sg487
F-0.7547831373325256
sg344
F-0.16032992505666502
sg488
F-0.3462160920263771
sg489
F0.03718175331730154
sg490
F0.021546982010647735
sg42
F-14.583402840771951
sg491
F-0.8954494635048822
sg346
F-0.01639257275714792
sg492
F0.20002626153967473
sg493
F0.2813753727202085
sg494
F0.2875150864485508
sg495
F0.5380653319453311
sg496
F0.3598758413988832
sg349
F596.416113549221
sg6
F-253.4327769518819
sg497
F1.1074926240594254
sg498
F0.16702852047711092
sg60
F-446.19797253443306
sg368
F-0.07869064682984679
sg499
F-0.15468575947856147
sg150
F-1.030882758237629
sg353
F-0.975875300327582
sg354
F-1.3069663416395798
sg355
F-2.1125820021028874
sg356
F-3.198830432964719
sg357
F0.29592885398072494
sg358
F-1.1090591231353648
sg359
F-3.1026525751252594
sg360
F-0.6762342499556652
sg361
F-2.722691646532714
sg75
F-406.58528701067524
sg500
F1.041469019514704
ss(g78
g369
tp517
(dp518
g461
F0.010242424225761314
sg430
F-0.009695820184568677
sg82
F0.007567625478513428
sg83
F-6.783516540378541
sg462
F-0.09410539994594469
sg374
F-0.29075134970728433
sg393
F-0.29975121903800495
sg463
F-1.777918980446087
sg84
F1.2508434736527823
sg375
F1.0249942781527972
sg376
F1.866290239169242
sg464
F-0.00962412564189806
sg85
F1.512723267602676
sg86
F0.2655687693085389
sg465
F0.4204361888631351
sg88
F2522.571593470476
sg89
F0.8269766303624174
sg90
F0.00622764478811519
sg91
F0.018401257198984645
sg92
F0.19749198022750858
sg93
F0.04982115830492152
sg377
F-2.392791921489237
sg94
F2084.8752607311258
sg401
F-0.5532824774571743
sg95
F-1.562285098334054
sg466
F-0.1903211830587721
sg381
F0.042350206305005675
sg439
F-0.06803413380203249
sg467
F-1.7449184938914708
sg468
F-0.0952702611213115
sg469
F-0.2852652021379749
sg97
F0.007567625478513428
sg470
F0.07047799284912729
sg432
F0.4764097038863374
sg42
F-8.301670606940519
sg100
F0.003340564988933466
sg471
F-0.3014820026281505
sg101
F0.04359351351680637
sg102
F2.058667973765851
sg472
F0.7696341019891396
sg104
F0.9043287648520474
sg473
F0.8762432555213285
sg474
F0.33146783780297556
sg107
F-2209.9015489751637
sg6
F-337.02726304306117
sg108
F1.4565255829987023
sg109
F1.0774693991732203
sg60
F-497.31769790350194
sg454
F-0.03998275937854545
sg475
F-0.2704403735804897
sg391
F-0.7832117497157307
sg112
F-0.7500167517228329
sg394
F-4.734036050236649
sg395
F-2.994310928373322
sg396
F-3.0161381556347386
sg397
F-0.21821083906667646
sg398
F-0.5961110893279459
sg373
F-5.075621018717572
sg399
F-1.897539314457374
sg400
F-2.125439429479799
sg476
F0.8295496167729324
sg75
F-398.85746996288225
sg458
F1.8588417260080508
ss(g211
g277
tp519
(dp520
S'56'
p521
F-0.01017074700528836
sg6
F316.301620021756
sg281
F-17.44483462593879
sg300
F-1.6116846476236875e-09
sg283
F0.3298286456887256
sg312
F-0.5432362615562542
sg284
F5.065372772380305
sg285
F0.4363465828216805
sg286
F2.5787711744778052
sg406
F-0.7285208574468879
sg288
F-0.6638028701288654
sg289
F0.2633376781352155
sS'68'
p522
F-0.7117167064257335
sg290
F-0.40536666411899075
sg291
F2999.023406498986
sg292
F-1.353433489651274
sg433
F-0.2723544451860051
sS'80'
p523
F-0.29278047392398426
sg435
F-0.5967005658316245
sS'85'
p524
F-0.08897385520459333
sg293
F-2.7398639009602852e-08
sg294
F3810.68235955364
sg295
F-1.611684647623698e-08
sg296
F-4.835053942871072e-09
sg297
F-1.6116846476236875e-09
sg298
F0.39463443386729
sg299
F-1.611684647623698e-08
sg320
F-2.4175269714355708e-08
sS'82'
p525
F-0.6902517061115184
sg60
F377.4991247244603
sg42
F0.47594518584009077
sS'87'
p526
F-0.0532271614216338
sS'89'
p527
F-0.03362460466232733
sg419
F-0.5777863358731584
sg301
F-0.5165666349119202
sg421
F1.412062478255898
sg302
F-1.0547883066579105
sg448
F-0.8568039862017881
sg303
F-3461.700800617232
sg304
F-2.056210549069482
sg425
F2.228578103099849
sS'91'
p528
F-0.01625187324849887
sS'90'
p529
F-0.004062968312124718
sS'93'
p530
F-0.004062968312124718
sg305
F-1.3595607425856173
sg307
F-1.4259067603764384
sg308
F-0.7679489888367791
sg309
F-1.6116846476236875e-09
sg310
F-1.051809418377502
sg311
F0.5878637788617064
sg313
F-0.28166682249681263
sg314
F2.349228929096541
sg315
F5.976351246008454
sg316
F-1.4505161828613296e-08
sg317
F-8.05842323811849e-09
sg282
F5.97579722682955
sg227
F0.10774613131561014
sg319
F-5.963233196207728e-08
sg75
F362.628477832632
sS'88'
p531
F-0.061345045122018806
sg423
F-0.6666308697004196
ss(g114
g277
tp532
(dp533
g6
F328.0598023099768
sg281
F-4.076486521621805
sg283
F3.625688599925346
sg152
F1.00030086958964
sg284
F3.296414041172441
sg285
F-0.6597387186338564
sg286
F1.9712015592404066
sg231
F1.0459851266356273
sg288
F1.2576743110655002
sg289
F1.3045040089212891
sg249
F-0.023003565627039323
sg290
F-0.5076569910435415
sg291
F-1961.9496274237003
sg292
F-1.3510477080478716
sg433
F-0.25033990404660517
sS'80'
p534
F-0.5819094130063027
sg435
F-0.46763008225695685
sS'85'
p535
F-0.13553822679154992
sg135
F0.41139575670335626
sg294
F1512.2197328309114
sS'82'
p536
F-0.5340417352328432
sS'87'
p537
F-0.042484750164002105
sg60
F471.7956436952117
sg42
F5.137843980661567
sg139
F0.21411405132211034
sg445
F-0.01916308035395247
sS'77'
p538
F-1.0085000400490742
sg301
F-1.9574161800989385
sg447
F-1.1776985388333203
sg302
F-1.7353698489478773
sg248
F-0.7650476918311045
sg303
F1290.0222645929657
sg304
F-1.4367393876672419
sg230
F-0.25999096962988616
sS'91'
p539
F-0.02196771039518321
sS'90'
p540
F-0.00549192759904746
sg452
F-0.005491927598711927
sg305
F-0.637289906302681
sg307
F-1.7409037935386567
sg308
F-1.5003429340342365
sg310
F2.7142271397660926
sg151
F2.4486506601479294
sg313
F2.7495834040072737
sg154
F0.730850466979627
sg315
F2.1100437071300244
sg156
F1.522643956416082
sS'51'
p541
F0.63529421373199
sg158
F0.578952420180961
sg159
F1.2305699350991233
sg160
F1.0712884248250254
sg75
F374.9757636449677
sS'88'
p542
F-0.07659144512191132
sg276
F-1.165257782424056
ss(g1
g369
tp543
(dp544
g6
F-531.4775689650811
sg430
F-0.021067529240154426
sg449
F1.7351567438142732
sg10
F-27.953770637395532
sg373
F-5.274731381152239
sg374
F-2.270636312150276
sg393
F-0.40283380955521
sg14
F0.2419860940860273
sg15
F0.15219330063596878
sg375
F-0.3598847672216671
sg376
F-0.4017395243662449
sg464
F0.162092630262549
sg19
F0.6523027922616177
sg20
F0.702441519967143
sg21
F0.6483305629355842
sg22
F0.5605005991435397
sg23
F1.26189395096266
sg24
F0.5203644398617983
sg25
F4034.355731740843
sg26
F1.151065817743176
sg27
F0.1642970298871989
sg377
F-2.7731582524760485
sg29
F859.8779500110893
sg378
F-0.43900826183219693
sS'47'
p545
F-2.3981769945238214
sg466
F-0.1759838149303265
sg381
F-1.3069645308396403
sg439
F-0.13601738046895326
sg467
F-1.6318258512355763
sg468
F-0.19075499421558748
sg442
F-0.09870096959983429
sg38
F0.23125472599953992
sg241
F5.2729983422808043e-11
sg462
F0.5295239485854056
sg40
F0.9532062034783315
sg41
F-2106.2529188801605
sg42
F-22.96290781806611
sg239
F0.2662750154445757
sg471
F-0.7308267004837333
sg44
F0.17344104449965525
sg45
F0.998337406816638
sg46
F1.447577958059567
sg47
F1.350954278850861
sg48
F2.2888177793737623
sg49
F0.9559362857071164
sg50
F1.7147345959217333
sg51
F1.3344004589787954
sg432
F0.8164940602008607
sg250
F0.12968610091438704
sg54
F0.05055968169411028
sg55
F7.908015575611776e-10
sg56
F3.2475528937403085e-10
sg57
F1.8362361915745629
sg53
F1.4857573623137882e-10
sg59
F1.2533684388443138
sg60
F-813.9970965908776
sg454
F0.22104646380803414
sg475
F-0.24102225500782307
sg391
F-1.258871875749114
sg392
F-3.3490297538382077
sg394
F-5.298501398162584
sg395
F-2.890115034364937
sg396
F-3.23256505388232
sg397
F-0.5790630890016797
sg398
F-1.5600212144210026
sg463
F-2.075831058008718
sg399
F-2.9113850729679642
sg400
F-3.7116453804257015
sg401
F-0.9288585103800847
sg75
F-647.4030219372561
sg58
F1.7013362092426107e-10
sg76
F0.03854245433325677
sg11
F0.03854245433325677
sg77
F0.3083396346660542
ss(g1
g211
tp546
(dp547
S'56'
p548
F0.21102525633930688
sg6
F-463.10113138172943
sg10
F22.78069822250919
sS'50'
p549
F-5.72756932256742
sg214
F-1.2702228912977143
sS'68'
p550
F0.7153739886258305
sg14
F0.4132865646356867
sg15
F0.25912695716351003
sg216
F-2.817025447395087
sg406
F0.6180985058764317
sS'66'
p551
F-0.39880064199469323
sg19
F-2.279902764640964
sg20
F3.57343154727072
sg21
F0.6186506944583002
sg22
F0.7069954468098892
sg23
F1.4337754260127282
sg24
F2.357358491835555
sg25
F559.6795711479822
sg26
F1.8066790288449
sg27
F0.30494665589670694
sS'48'
p552
F0.031007841080832075
sg29
F-2294.594848225377
sg405
F-3.6347089887893893
sg53
F0.013569560887059027
sS'44'
p553
F0.05351554479749752
sg218
F-0.34827867315264005
sg34
F0.03058031131285569
sg11
F0.015290155656427846
sS'40'
p554
F0.0229352334846418
sg43
F1.3408301193243257
sg38
F0.0917409339385672
sg241
F0.011355228237602304
sg39
F0.22935233484641807
sS'41'
p555
F0.0688057004539254
sg40
F0.36591913381880214
sg41
F508.89478055519663
sg42
F-10.925349792017915
sS'43'
p556
F0.0688057004539254
sg44
F0.0688057004539254
sg45
F-0.27106173012373275
sg46
F0.6565066300387019
sg47
F-2.143853017731639
sg48
F1.0707868262295819
sS'73'
p557
F0.5563462431514289
sg50
F-0.17354482677073332
sg51
F0.6362384909984927
sg425
F-3.5084526406478482
sg61
F0.1306211850327259
sg54
F0.10093330251079703
sg55
F0.06895497076002348
sg56
F0.0670599188883708
sg57
F0.9098990632806151
sg58
F0.008999113092986222
sg59
F1.9128121674517693
sg60
F-557.0813865974858
sg62
F0.11467616742320903
sg63
F0.07645077828213927
sS'59'
p558
F0.19486258299721582
sg221
F-1.318170145771865
sS'61'
p559
F0.05646282451020674
sS'55'
p560
F-0.4102242628029983
sS'54'
p561
F-1.452907358500434
sg225
F-5.552610570863163
sS'49'
p562
F0.0010635911758214147
sS'51'
p563
F0.03536592190304903
sS'62'
p564
F-5.425590651575874
sg227
F0.057994377664466565
sS'52'
p565
F0.10991672288442528
sS'46'
p566
F0.015503920540416037
sg75
F-494.8860099842733
sg76
F0.015290155656427846
sg77
F0.12232124525142277
ss(g115
g162
tp567
(dp568
g6
F198.39564154242927
sg118
F-102.64251344334485
sS'60'
p569
F0.06152714376141051
sg120
F0.9639403295003112
sg168
F0.14465188376585672
sg122
F0.39321900635659784
sg169
F-1.5129576071530784
sg124
F0.7136792213589859
sg125
F0.2600467351682881
sg126
F1.130475600917941
sg127
F-0.5346838148737407
sg128
F1.7251262414117374
sg129
F0.616482345275298
sg130
F-1.4843370074885966
sg178
F-3.795947963087691
sg132
F-1655.5398916041415
sg133
F-2.262065852869751
sg181
F-0.9893538844718545
sg136
F1121.204951780326
sg179
F-0.8590836033434914
sg138
F0.5883608777625043
sg42
F2.520037646932031
sg175
F-0.8711489654190707
sg141
F2.50486108731828
sg142
F0.2843457086739806
sg143
F1.908696810658931
sg144
F3.268786312448498
sg145
F1.1194121445835903
sg146
F11.378307213488739
sg147
F0.4481221485887543
sg148
F2.225931763608602
sg193
F-0.3107247915023237
sg194
F-0.2621356900255408
sg195
F-0.057885496528749754
sg196
F-0.07097854453936578
sg149
F-0.8641653176606409
sg60
F243.58607190863333
sS'59'
p570
F0.011327952799885178
sS'58'
p571
F0.0062722412403597464
sS'61'
p572
F0.028599507024088176
sg205
F-1.2386338460629527
sg75
F206.39666712781573
sS'64'
p573
F0.06621657846345885
sg161
F2.260411571775338
ss(g321
g369
tp574
(dp575
g461
F-0.42008981429740033
sg372
F0.005427286243335675
sg325
F0.5633499930960862
sg462
F-0.03061942086984667
sg327
F0.27783693962816197
sg393
F1.027185089664204
sg329
F0.505718208648293
sg330
F-0.1560879118850296
sg331
F0.6750864118104069
sg332
F0.01312456430229393
sg464
F-0.5808522130963539
sS'67'
p576
F-0.5784769515620172
sg432
F-0.0935125497919905
sg465
F-0.594268544535646
sg335
F2352.373729352606
sg336
F0.022947396461679107
sg337
F-0.6635102330809975
sg338
F-994.4822108785643
sg339
F1.3964502494558757
sg340
F-0.4956592785142087
sg367
F0.050764892731734665
sg341
F1.0514149339426238
sg342
F-0.1320051826569505
sg487
F-0.3219794497873141
sg344
F-0.0009477314628254945
sg488
F-0.20412297277517596
sg346
F0.026318263788621375
sS'78'
p577
F-0.0012625480158895328
sg42
F1.049093121940258
sg491
F0.15230562285838278
sS'77'
p578
F-0.0004208493386298441
sS'76'
p579
F-0.01914834666507624
sS'75'
p580
F-0.06508021365624522
sg473
F-0.1745133985308422
sS'73'
p581
F-0.0747040754372969
sg349
F-704.8521083552137
sg6
F31.614263612376547
sg449
F-0.12139237960451021
sS'79'
p582
F-0.0012625480158895328
sg60
F55.99731385511497
sg368
F-0.03550108059017667
sg475
F0.0034781932409995247
sg391
F1.1104170499864905
sg353
F-0.1842208753806657
sg354
F-0.867874564350103
sg355
F-0.3612854424419691
sg356
F2.024508113689997
sg357
F0.47576424222209635
sg358
F-0.10081942951673731
sg359
F-0.2224686778314162
sg360
F-0.4484942039504728
sg361
F0.24282884754624126
sg75
F74.36159728736654
sg458
F-0.3654550017756972
ss(g277
g1
tp583
(dp584
g521
F-0.3467123212149442
sg6
F67.34158284228349
sg281
F10.683752620119437
sg282
F0.1129799881746575
sg283
F-0.294012981357388
sg550
F0.522072269226434
sg284
F0.49412532213637517
sg285
F1.1637473622924048
sg286
F1.1558262344885637
sS'65'
p585
F-0.28989904139774997
sg288
F0.7516094773914922
sg289
F-0.12602931443057963
sg20
F-0.9280456273019217
sg290
F-0.22909579079983183
sg291
F-2396.9001655642505
sg292
F0.032459478032330756
sg24
F-1.0595081614011232
sg22
F0.29038824757284204
sg26
F-1.15679024793887
sg27
F-0.10177569650366197
sS'95'
p586
F-0.00850639041027878
sg293
F-0.030499738316650746
sg294
F-873.3063477774618
sg295
F-0.035325365428996024
sg296
F0.007091215383941722
sg297
F-0.025641320397220838
sg298
F0.019817175059761393
sS'42'
p587
F-0.011498206798303453
sg299
F0.03190905228247333
sS'40'
p588
F-0.010456759760134195
sg320
F0.055605264531149314
sg240
F-0.02716220174928398
sg241
F-0.004572945187604929
sg300
F-0.06218860610405789
sg60
F95.16181280932227
sg42
F4.470745123232919
sg239
F-0.6048925655615228
sg15
F-0.28249238518285297
sg247
F-0.02037165131196296
sg45
F0.20592089451766152
sg301
F0.8099080632198918
sg47
F0.6650326889922188
sg302
F-0.5315809600724808
sg557
F0.6317411798291197
sg303
F2699.6526795747013
sg304
F1.4230913086003087
sS'70'
p589
F-0.798984896104421
sg250
F-0.14445816160639532
sS'90'
p590
F-0.08154240035107344
sg530
F-0.041590989623401554
sS'92'
p591
F-0.033306946095252324
sg305
F-0.1585965192066823
sS'94'
p592
F-0.0016080027185265521
sg307
F-0.1710781485815063
sg308
F0.7953089851235882
sg309
F-0.028235853917452897
sg252
F-0.02263516812440329
sg310
F0.42610038523788957
sg311
F-0.06754271099085368
sg312
F0.25578176482055454
sg313
F0.29907660001217895
sg314
F-0.14696761242682588
sg315
F0.3653289460612125
sg316
F0.03283867212995343
sg317
F-0.18760049941949886
sg14
F-0.31922951723146054
sg318
F-0.13427812350832602
sg319
F0.053079201728156764
sg75
F57.90105522225928
sg246
F-0.004527033624880668
sg237
F-0.004527033624880668
sg256
F-0.03621626899904534
sg50
F-0.13539135451959344
ss(g321
g115
tp593
(dp594
g6
F704.8399407219707
sg364
F3.3430294261116564e-08
sg118
F2887.649647268015
sg365
F6.09151891375738e-07
sg327
F4.531570865034818
sg120
F-0.8009974260049704
sg329
F4.547163978447736
sg122
F0.7078290498101915
sg331
F2.419536419099785
sg124
F0.33718854591140435
sg125
F0.3065608551664654
sg126
F-0.9496101864148813
sg127
F-0.8260913995206447
sg128
F-1.1190642713497199
sg129
F-1.7438385502711666
sg130
F-1.8724837791531195
sS'86'
p595
F-0.5315173894554842
sg132
F-18.648054217691143
sg133
F-0.4025834938353943
sg134
F-0.6622813956738824
sg337
F0.9532462584689146
sg136
F-6299.476986898955
sg339
F6.839864528486719
sS'47'
p596
F0.9380974264336499
sS'44'
p597
F0.7578694857947347
sg341
F1.8081919299265563
sS'42'
p598
F0.007387804806798684
sg343
F0.23695957587299799
sS'40'
p599
F1.396216197295495e-06
sg345
F0.004750062512368607
sg346
F5.014544139167443e-08
sg138
F-2.011987708477985
sg42
F31.823251394873687
sS'87'
p600
F-0.006383144432222807
sg347
F1.4770527466603216
sg140
F-1.1022937526780527
sg484
F5.967885957245128e-08
sg141
F-2.244021599640143
sg142
F-2.5666404221521204
sg143
F-3.0682811874635094
sg144
F-3.3893393626490833
sg145
F-2.1413262416691627
sg146
F25.490860031659896
sg147
F-1.4407685928429674
sg148
F-1.4481120910642074
sg149
F-2.505611993255236
sg60
F1075.5301261955121
sS'39'
p601
F7.219485949492766e-07
sg351
F0.014577288738075761
sg352
F4.360955240265564
sg353
F5.227024793836731
sg328
F2.5188548322691697
sg354
F4.167931927125089
sg355
F2.6296201965650035
sg356
F6.953446370636944
sg357
F1.8070095776088924
sg358
F1.6700415559954593
sg359
F2.9784551328957862
sg360
F1.6863091539211685
sg361
F2.5048598767900185
sg75
F931.7017437159211
sg161
F-1.9787345123953406
ss(g1
g78
tp602
(dp603
g6
F-260.53232626123247
sg82
F-0.006170989767440698
sg10
F31.99481664638818
sS'50'
p604
F0.03996687641304881
sS'60'
p605
F-1.8964000691685627
sS'61'
p606
F-0.028250454800912095
sg14
F0.30247481414375593
sg15
F0.433202196923218
sS'64'
p607
F-1.6122691076759474
sg171
F-2.528816250670361
sS'66'
p608
F-0.4156516474325131
sg19
F-1.6874856946843309
sg20
F3.4157214489331738
sg21
F0.7040438499461066
sg22
F0.8278210560689916
sg23
F0.38782496963583524
sg24
F2.349008688108032
sg25
F-1322.30731213592
sg26
F1.7734807552272251
sg27
F0.2752914171479531
sS'48'
p609
F0.10912940209826037
sg29
F-997.0755777947179
sg84
F-1.8319195120131093
sg95
F-0.2341308298258617
sg234
F0.025563013252833885
sS'45'
p610
F-0.3513464910729652
sg587
F0.010654424070530995
sS'43'
p611
F0.023278388660428397
sg588
F0.0039020247802564402
sg239
F1.7805791723086457
sg97
F0.017463496464956617
sg39
F0.05908621558099336
sg77
F0.03151264830986322
sS'41'
p612
F0.028830912646558782
sg40
F0.8836981912175963
sS'68'
p613
F0.04364685549217937
sg41
F759.7855433613405
sg42
F-6.605315807064278
sS'49'
p614
F0.015566873046407682
sg44
F0.01772586467429802
sg45
F-3.9045266895526773
sg46
F0.7894378173656132
sg47
F-0.8818421061062443
sg48
F0.2718342277494457
sS'73'
p615
F0.5030950008194149
sg50
F-3.9555894582538196
sg51
F0.8663027560867681
sg108
F-2.4967895487000873
sg250
F0.17711319712660892
sg54
F0.06750445514686063
sg55
F0.03624901705858148
sg56
F0.019984834428542854
sg57
F0.5648552191824645
sg53
F0.006590730374287549
sg59
F-0.0018632243610946027
sg60
F-337.6062970309693
sg62
F0.02954310779049668
sg63
F0.019695405193664455
sS'59'
p616
F-0.5743692692415964
sg112
F-1.4432448694301796
sS'55'
p617
F-0.11030921759504736
sS'54'
p618
F0.0782598274025122
sS'57'
p619
F-0.0526001170672959
sS'56'
p620
F0.21542097044745098
sS'51'
p621
F-0.14929397908770248
sS'62'
p622
F-0.48983496335390575
sg206
F-0.010736030278691527
sg207
F-0.5624435814370767
sS'46'
p623
F-0.01310243535787635
sg75
F-311.6853131049659
sg58
F0.009886095561431302
sg76
F0.003939081038732903
sg11
F0.003939081038732903
sg274
F-0.3671973415576579
ss(g2
g211
tp624
(dp625
g5
F1.296400568301037
sg6
F345.0437986478042
sg7
F0.01866322386942557
sg404
F414.4060902302214
sg214
F1.9222494387519824
sg13
F1.2425204733551414
sg8
F0.4821216548293017
sg405
F-2.316741689390101
sg216
F1.9247823023159336
sg406
F1.6378892709996484
sg18
F0.4380457114422754
sg407
F-0.8909574723611324
sS'68'
p626
F0.5137391800256155
sg408
F0.27313782079132337
sg409
F-191.22427644629585
sS'81'
p627
F-0.28001632818717165
sg411
F97.43752787152577
sg412
F-0.06310227114077092
sS'48'
p628
F1.8282851737321106
sg413
F18.43164167717347
sS'46'
p629
F5.380625648847647
sS'47'
p630
F0.5730128709857516
sg32
F0.33939012346083985
sg33
F0.6701975852121254
sS'42'
p631
F0.05562890450868013
sg35
F0.8647271427760941
sS'40'
p632
F0.10591084423920973
sg37
F0.3225285748582229
sg510
F-0.2151530201451392
sg42
F42.14839240470367
sg418
F-0.07296200100651651
sg419
F-1.1277715408607307
sg420
F-0.9237254573812386
sg421
F-3.4798792065261837
sg422
F-0.8788530733758662
sg511
F-0.17314085049749722
sg423
F-1.3523443940993947
sg424
F-0.2839238399122097
sg425
F-5.55356732908287
sg426
F-0.4487033589539968
sg60
F455.10869498555223
sg110
F0.01866322386942557
sg111
F0.03732644773885114
sg64
F1.882983763211299
sg65
F0.07627580396753687
sg66
F1.9794544686559543
sg67
F0.3515572027775797
sg225
F0.7679193479944877
sg69
F0.5734938493195394
sg70
F0.7398506284694865
sg71
F-1.2156502244243867
sg227
F2.7010942872479258
sg73
F3.7002447537916505
sg75
F396.36080738202867
ss(g1
g114
tp633
(dp634
g6
F-418.48221290818924
sg230
F0.17156814443069726
sg10
F-6.379918271952129
sg158
F-0.4762292782371153
sg119
F-4.187279120792491
sg152
F-1.0406946851380485
sg14
F0.5446504508057493
sg15
F0.33388440348459714
sg123
F-3.3277086435809973
sg231
F-1.0140904974688802
sg232
F-2.017309344325055
sg19
F-1.6181500448220631
sg20
F1.5652800034081438
sg21
F0.9204751915930732
sg22
F0.7520712826423928
sg23
F1.6486621947738345
sg24
F1.4910827221162615
sg25
F3384.853025048194
sg26
F1.6714555966319526
sg27
F0.45819998347016455
sg135
F-0.29557059212936565
sg29
F-1378.7103244587577
sg233
F-0.8346692904347811
sg53
F0.01754876661278836
sg234
F0.039073172101590316
sg235
F0.004103269360273919
sg236
F0.013648612960566091
sg237
F0.006751557415005944
sg238
F0.010345583318340207
sg239
F0.5572134685100371
sg240
F0.040509344490035716
sg241
F0.010274084749938895
sg242
F0.10127336122508923
sg243
F0.030964000889743562
sg40
F0.8341871361583733
sg41
F-2734.5724625940325
sg42
F-10.458012640383057
sg244
F-0.08409198018268887
sg245
F0.03067300462863519
sg246
F0.006751557415005944
sg247
F0.0303820083675268
sg45
F1.0243798999294569
sg46
F1.1577805579259253
sg47
F0.8152135396177438
sg48
F1.4624234923324049
sg248
F0.4140004806951278
sg50
F0.6518246888362608
sg51
F0.09380699394699006
sg249
F0.32483693492080834
sg250
F0.16493427898039797
sg54
F0.13277031315070575
sg55
F0.09138117399536663
sg56
F0.06177808100292965
sg57
F0.25599428779920874
sg58
F0.016049065169243617
sg59
F1.5901290719503867
sg60
F-574.306291984947
sg251
F0.050636680612544616
sg252
F0.03375778707502976
sg150
F-3.135833068527672
sg151
F-1.9533201087324918
sg153
F-3.1069015770132937
sg154
F-0.5666354687259897
sg155
F-2.165687407351405
sg156
F-0.70003901294602
sg253
F-0.2813032544603719
sg121
F-5.5346887796433775
sg159
F-0.8384306944269438
sg160
F-0.6450598081331058
sg254
F0.05764785396310447
sg75
F-459.5368990146765
sg255
F0.005438569977464888
sg256
F0.05401245932004755
ss(g78
g1
tp635
(dp636
g6
F260.53232626123247
sg82
F0.006170989767440698
sg10
F-31.99481664638818
sg604
F-0.03996687641304881
sg605
F1.8964000691685627
sg606
F0.028250454800912095
sg14
F-0.30247481414375593
sg15
F-0.433202196923218
sg607
F1.6122691076759474
sg171
F2.528816250670361
sg608
F0.4156516474325131
sg19
F1.6874856946843309
sg20
F-3.4157214489331738
sg21
F-0.7040438499461066
sg22
F-0.8278210560689916
sg23
F-0.38782496963583524
sg24
F-2.349008688108032
sg25
F1322.30731213592
sg26
F-1.7734807552272251
sg27
F-0.2752914171479531
sg609
F-0.10912940209826037
sg29
F997.0755777947179
sg84
F1.8319195120131093
sg95
F0.2341308298258617
sg234
F-0.025563013252833885
sg610
F0.3513464910729652
sg587
F-0.010654424070530995
sg611
F-0.023278388660428397
sg588
F-0.0039020247802564402
sg239
F-1.7805791723086457
sg97
F-0.017463496464956617
sg39
F-0.05908621558099336
sg77
F-0.03151264830986322
sg612
F-0.028830912646558782
sg40
F-0.8836981912175963
sg613
F-0.04364685549217937
sg41
F-759.7855433613405
sg42
F6.605315807064278
sg614
F-0.015566873046407682
sg44
F-0.01772586467429802
sg45
F3.9045266895526773
sg46
F-0.7894378173656132
sg47
F0.8818421061062443
sg48
F-0.2718342277494457
sg615
F-0.5030950008194149
sg50
F3.9555894582538196
sg51
F-0.8663027560867681
sg108
F2.4967895487000873
sg250
F-0.17711319712660892
sg54
F-0.06750445514686063
sg55
F-0.03624901705858148
sg56
F-0.019984834428542854
sg57
F-0.5648552191824645
sg53
F-0.006590730374287549
sg59
F0.0018632243610946027
sg60
F337.6062970309693
sg62
F-0.02954310779049668
sg63
F-0.019695405193664455
sg616
F0.5743692692415964
sg112
F1.4432448694301796
sg617
F0.11030921759504736
sg618
F-0.0782598274025122
sg619
F0.0526001170672959
sg620
F-0.21542097044745098
sg621
F0.14929397908770248
sg622
F0.48983496335390575
sg206
F0.010736030278691527
sg207
F0.5624435814370767
sg623
F0.01310243535787635
sg75
F311.6853131049659
sg58
F-0.009886095561431302
sg76
F-0.003939081038732903
sg11
F-0.003939081038732903
sg274
F0.3671973415576579
ss(g115
g277
tp637
(dp638
g280
F-0.11580390191931537
sg6
F-100.09728998481643
sg118
F-3933.452699980953
sg300
F-4.309378320615304e-09
sg283
F-0.8975028956592391
sg120
F-0.09093745692039329
sg284
F-2.0411581871876883
sg122
F-2.278408711283025
sg286
F-2.006899863793725
sg124
F-0.1551851083968663
sg125
F-1.7904675654116047
sg126
F-0.8556369036322644
sg127
F0.6481145174987417
sg128
F-0.34673359847223556
sg129
F0.48030812017919056
sg130
F0.31235089294968743
sS'86'
p639
F0.16539559624629604
sg132
F3906.607395728688
sg133
F0.18488694619034585
sS'85'
p640
F0.16298357594991272
sg293
F-7.325943145045978e-08
sg136
F4612.991876602796
sg295
F-4.3093783206153415e-08
sg296
F-1.2928134961845947e-08
sg297
F-4.309378320615304e-09
sg298
F-2.5856269923691894e-08
sg299
F-4.3093783206153415e-08
sg320
F-6.464067480922983e-08
sg138
F-0.13071631876411252
sg42
F-12.201543489419251
sS'87'
p641
F-0.02468528818417165
sS'89'
p642
F-0.02975423322438934
sg290
F0.5063267945129301
sg141
F1.8397977118290272
sg142
F0.23765770234776165
sg143
F2.017798475860912
sg144
F2.1040244120041316
sg145
F0.48062995268206754
sg146
F-11.801685123310707
sg147
F-1.836967579058687
sg148
F0.919118732326996
sS'91'
p643
F-2.5163389447392066e-08
sS'90'
p644
F-2.5163389447392066e-08
sS'93'
p645
F-3.1454236809240082e-09
sg453
F-1.887254208554403e-08
sg306
F-1.5727118404620092e-08
sg149
F0.9890475285968789
sg60
F-208.86113846667484
sg309
F-4.309378320615304e-09
sg310
F-1.7070372424619547
sg311
F-0.541355372913088
sS'61'
p646
F-0.5977675683900782
sg313
F-0.9307220522176726
sg314
F-1.0185910981058734e-08
sg315
F-0.7560064217385332
sg316
F-3.878440488553732e-08
sg317
F-2.1546891603076708e-08
sg282
F-1.3790010625968974e-07
sg318
F-1.5473186653762568e-07
sg319
F-1.5944699786276516e-07
sg75
F-135.3708317734315
sS'88'
p647
F-4.2212741560542424e-07
sg161
F1.3436571808938722
ss(g277
g211
tp648
(dp649
g521
F0.01017074700528836
sg6
F-316.301620021756
sg281
F17.44483462593879
sg300
F1.6116846476236875e-09
sg283
F-0.3298286456887256
sg312
F0.5432362615562542
sg284
F-5.065372772380305
sg285
F-0.4363465828216805
sg286
F-2.5787711744778052
sg406
F0.7285208574468879
sg288
F0.6638028701288654
sg289
F-0.2633376781352155
sg522
F0.7117167064257335
sg290
F0.40536666411899075
sg291
F-2999.023406498986
sg292
F1.353433489651274
sg433
F0.2723544451860051
sg523
F0.29278047392398426
sg435
F0.5967005658316245
sg524
F0.08897385520459333
sg293
F2.7398639009602852e-08
sg294
F-3810.68235955364
sg295
F1.611684647623698e-08
sg296
F4.835053942871072e-09
sg297
F1.6116846476236875e-09
sg298
F-0.39463443386729
sg299
F1.611684647623698e-08
sg320
F2.4175269714355708e-08
sg525
F0.6902517061115184
sg60
F-377.4991247244603
sg42
F-0.47594518584009077
sg526
F0.0532271614216338
sg527
F0.03362460466232733
sg419
F0.5777863358731584
sg301
F0.5165666349119202
sg421
F-1.412062478255898
sg302
F1.0547883066579105
sg448
F0.8568039862017881
sg303
F3461.700800617232
sg304
F2.056210549069482
sg425
F-2.228578103099849
sg528
F0.01625187324849887
sg529
F0.004062968312124718
sg530
F0.004062968312124718
sg305
F1.3595607425856173
sg307
F1.4259067603764384
sg308
F0.7679489888367791
sg309
F1.6116846476236875e-09
sg310
F1.051809418377502
sg311
F-0.5878637788617064
sg313
F0.28166682249681263
sg314
F-2.349228929096541
sg315
F-5.976351246008454
sg316
F1.4505161828613296e-08
sg317
F8.05842323811849e-09
sg282
F-5.97579722682955
sg227
F-0.10774613131561014
sg319
F5.963233196207728e-08
sg75
F-362.628477832632
sg531
F0.061345045122018806
sg423
F0.6666308697004196
ss(g211
g2
tp650
(dp651
g5
F-1.296400568301037
sg6
F-345.0437986478042
sg7
F-0.01866322386942557
sg404
F-414.4060902302214
sg214
F-1.9222494387519824
sg13
F-1.2425204733551414
sg8
F-0.4821216548293017
sg405
F2.316741689390101
sg216
F-1.9247823023159336
sg406
F-1.6378892709996484
sg18
F-0.4380457114422754
sg407
F0.8909574723611324
sg626
F-0.5137391800256155
sg408
F-0.27313782079132337
sg409
F191.22427644629585
sg627
F0.28001632818717165
sg411
F-97.43752787152577
sg412
F0.06310227114077092
sg628
F-1.8282851737321106
sg413
F-18.43164167717347
sg629
F-5.380625648847647
sg630
F-0.5730128709857516
sg32
F-0.33939012346083985
sg33
F-0.6701975852121254
sg631
F-0.05562890450868013
sg35
F-0.8647271427760941
sg632
F-0.10591084423920973
sg37
F-0.3225285748582229
sg510
F0.2151530201451392
sg42
F-42.14839240470367
sg418
F0.07296200100651651
sg419
F1.1277715408607307
sg420
F0.9237254573812386
sg421
F3.4798792065261837
sg422
F0.8788530733758662
sg511
F0.17314085049749722
sg423
F1.3523443940993947
sg424
F0.2839238399122097
sg425
F5.55356732908287
sg426
F0.4487033589539968
sg60
F-455.10869498555223
sg110
F-0.01866322386942557
sg111
F-0.03732644773885114
sg64
F-1.882983763211299
sg65
F-0.07627580396753687
sg66
F-1.9794544686559543
sg67
F-0.3515572027775797
sg225
F-0.7679193479944877
sg69
F-0.5734938493195394
sg70
F-0.7398506284694865
sg71
F1.2156502244243867
sg227
F-2.7010942872479258
sg73
F-3.7002447537916505
sg75
F-396.36080738202867
ss(g2
g321
tp652
(dp653
g324
F3.079677717662823e-07
sg7
F0.04106145392715684
sg325
F27.13937289327879
sg326
F-4.87954924153301e-08
sg327
F-0.500770325508401
sg328
F-0.4120526625908201
sg329
F-0.16230417729933297
sg330
F1.624342237802814
sg331
F-0.0007184571580090989
sg332
F1.3571209915066003
sg18
F0.007696140559865359
sg333
F1.2954430531761334
sg334
F0.4110655411118561
sg87
F0.7249931879783981
sg335
F-1649.8583906542199
sg336
F-1.1463153175734985e-07
sg337
F0.8766214992880565
sg338
F3814.509825199429
sg339
F-2.9054722463209077
sg340
F-1.0968441264490185
sg32
F0.20939238739494326
sg341
F-0.9271432293569194
sg342
F-0.0393627601936607
sg343
F0.47061493091174583
sg344
F-0.005899834962875197
sg345
F0.6700813878157248
sg346
F-1.00678067722165e-07
sg42
F13.096617562786987
sg347
F0.11026600993994361
sg348
F0.13146319243285678
sg349
F-650.4573505865366
sg6
F-33.005549691995135
sg350
F0.29514252742381347
sg60
F-85.53409441120391
sg110
F0.0030151035975043033
sg351
F-0.013755384317809734
sg352
F-2.4770611507439586
sg353
F-0.5027913730231557
sg354
F-1.2268256429240658
sg355
F-1.5495776930268559
sg356
F-2.081996481987503
sg357
F-0.19830245461342563
sg358
F1.6402587409062448
sg359
F0.5873859538023448
sg360
F1.5218411480549845
sg361
F-0.6448097681183623
sg75
F-98.86237816885662
ss(g115
g1
tp654
(dp655
g565
F-0.1345425994618279
sg6
F91.52572064329098
sS'53'
p656
F-0.0949086931619542
sg118
F-1070.5643750945292
sg556
F-8.534662388935151e-10
sg605
F-0.6324200927439184
sg120
F0.04231425800692962
sg14
F-0.5261677277209419
sg122
F-0.29195376139175133
sg15
F-0.3993994635148526
sg124
F-0.817157175084
sg125
F-0.27908380138766176
sg126
F-0.48727754037358206
sg127
F-3.105043565173144
sg128
F-0.2658141180552098
sg129
F0.9878841917167389
sg130
F0.9438886467529766
sg24
F-2.549342492135815
sg132
F861.617176414262
sg133
F-1.5796225967123236
sg27
F-0.009714591640858984
sS'48'
p657
F-1.8965916419855522e-10
sg136
F2873.684973268436
sS'46'
p658
F-9.482958209927761e-11
sg553
F-6.638070746949493e-10
sS'45'
p659
F-9.482958209927761e-11
sg34
F-3.7931832839711044e-10
sg11
F-1.8965916419855522e-10
sg554
F-2.844887462978374e-10
sg239
F-2.0414618504947883
sg549
F-0.03347501338646704
sg241
F-0.013920444988754799
sg39
F-2.844887462978366e-09
sg138
F1.4800820093932767
sg42
F-9.173842606106486
sg562
F-0.007778748893942659
sg21
F0.29853117403288215
sg141
F2.4833070474638075
sg142
F1.6341298896329874
sg143
F3.042154392669986
sg144
F2.940364064468418
sg145
F1.0871835755400232
sg146
F-58.06158655157367
sg147
F0.4577492928356817
sg148
F0.2605616440395614
sg250
F-0.1718058627905055
sS'90'
p660
F-0.1477400872353646
sS'93'
p661
F-0.09133136648492565
sg591
F-0.09116349788021683
sg586
F-0.01787119799623691
sS'94'
p662
F-0.012886352005600506
sg149
F0.8768823068713467
sg60
F41.23203004772864
sg62
F-1.422443731489183e-09
sg63
F-9.482958209927837e-10
sg616
F-0.23544105087103126
sS'58'
p663
F-0.36327676530801956
sg606
F-0.10780723860544027
sg617
F-0.26600762732202243
sg618
F-0.08908696331145914
sg619
F-0.30139473810252426
sg620
F-0.09928474641153252
sS'51'
p664
F-0.018417991371165596
sS'62'
p665
F-0.8857197577636263
sg38
F-1.1379549851913496e-09
sg44
F-8.534662388935151e-10
sg555
F-8.534662388935151e-10
sg75
F54.67174190578689
sg76
F-1.8965916419855522e-10
sS'64'
p666
F-0.35116277519897077
sg77
F-1.5172733135884418e-09
sg161
F0.9275175555948805
ss(g78
g115
tp667
(dp668
g6
F148.95028604828389
sg118
F-37.746056216331134
sS'60'
p669
F1.6660591850090913
sg120
F-0.1155091229877161
sg622
F0.4839216625630575
sg122
F1.9386475868166726
sg666
F1.693606224871923
sg124
F1.7192206811551427
sg125
F0.3178447097861261
sg126
F1.8279921580072886
sg127
F-1.0825998663641556
sg128
F-0.7666751633309411
sg129
F-0.8511885961099407
sg130
F-0.6153971094543398
sS'86'
p670
F-0.25029024730807614
sg132
F1232.7092939179686
sg133
F-0.24459418255352344
sS'85'
p671
F-0.38294718107237075
sg136
F-3217.1857220152674
sg208
F0.15343802790642522
sg95
F0.2158912283149028
sg266
F0.33752518839219975
sg82
F0.004105283734004644
sg183
F0.004105283734004644
sg137
F-0.016358918456215323
sg97
F0.004105283734004644
sg138
F-1.741681120319176
sg42
F33.12365237009573
sS'49'
p672
F0.0027002797776568845
sS'83'
p673
F-0.7993860720763989
sg141
F2.228831193045151
sg142
F-1.5073813586766975
sg143
F-1.4417385328037664
sg144
F-2.220074998026009
sg145
F-1.0433849089734164
sg146
F449.8481905190202
sg147
F-0.8997228343465051
sg148
F1.7731188558707733
sg149
F-0.4956379237505481
sg60
F257.92480386716215
sg199
F0.7151847466735453
sg112
F1.5105429291790968
sS'61'
p674
F0.06358425351382278
sg201
F0.430497763345774
sS'54'
p675
F0.013501398888284454
sg202
F0.21906047300622386
sg203
F0.104958531467037
sg204
F0.24211802725691595
sS'50'
p676
F0.021602238221255076
sg206
F0.04347450696232327
sg207
F0.6668532814330296
sg274
F0.33752518839219975
sg75
F231.58837676987957
sg275
F0.000743179470726595
sg161
F2.3188428406229726
ss(g369
g1
tp677
(dp678
g6
F531.4775689650811
sg430
F0.021067529240154426
sg449
F-1.7351567438142732
sg10
F27.953770637395532
sg373
F5.274731381152239
sg374
F2.270636312150276
sg393
F0.40283380955521
sg14
F-0.2419860940860273
sg15
F-0.15219330063596878
sg375
F0.3598847672216671
sg376
F0.4017395243662449
sg464
F-0.162092630262549
sg19
F-0.6523027922616177
sg20
F-0.702441519967143
sg21
F-0.6483305629355842
sg22
F-0.5605005991435397
sg23
F-1.26189395096266
sg24
F-0.5203644398617983
sg25
F-4034.355731740843
sg26
F-1.151065817743176
sg27
F-0.1642970298871989
sg377
F2.7731582524760485
sg29
F-859.8779500110893
sg378
F0.43900826183219693
sg545
F2.3981769945238214
sg466
F0.1759838149303265
sg381
F1.3069645308396403
sg439
F0.13601738046895326
sg467
F1.6318258512355763
sg468
F0.19075499421558748
sg442
F0.09870096959983429
sg38
F-0.23125472599953992
sg241
F-5.2729983422808043e-11
sg462
F-0.5295239485854056
sg40
F-0.9532062034783315
sg41
F2106.2529188801605
sg42
F22.96290781806611
sg239
F-0.2662750154445757
sg471
F0.7308267004837333
sg44
F-0.17344104449965525
sg45
F-0.998337406816638
sg46
F-1.447577958059567
sg47
F-1.350954278850861
sg48
F-2.2888177793737623
sg49
F-0.9559362857071164
sg50
F-1.7147345959217333
sg51
F-1.3344004589787954
sg432
F-0.8164940602008607
sg250
F-0.12968610091438704
sg54
F-0.05055968169411028
sg55
F-7.908015575611776e-10
sg56
F-3.2475528937403085e-10
sg57
F-1.8362361915745629
sg53
F-1.4857573623137882e-10
sg59
F-1.2533684388443138
sg60
F813.9970965908776
sg454
F-0.22104646380803414
sg475
F0.24102225500782307
sg391
F1.258871875749114
sg392
F3.3490297538382077
sg394
F5.298501398162584
sg395
F2.890115034364937
sg396
F3.23256505388232
sg397
F0.5790630890016797
sg398
F1.5600212144210026
sg463
F2.075831058008718
sg399
F2.9113850729679642
sg400
F3.7116453804257015
sg401
F0.9288585103800847
sg75
F647.4030219372561
sg58
F-1.7013362092426107e-10
sg76
F-0.03854245433325677
sg11
F-0.03854245433325677
sg77
F-0.3083396346660542
ss(g2
g277
tp679
(dp680
g5
F1.0842902016870495
sg6
F592.6213458987085
sg7
F0.036066539270876136
sg281
F63.96035850154396
sg283
F2.3378788945793603
sg13
F0.6268373005389141
sg284
F3.8262824073638027
sg285
F0.6007462083263568
sg286
F0.7652095098139782
sg17
F0.5965111822783562
sg288
F-0.7835572819414381
sg289
F-0.7665792764327588
sg536
F-0.43637108724858437
sg290
F-0.2569556892175289
sg291
F1173.4895838047573
sg292
F-1.3152847890300088
sg433
F-0.1300114953952312
sg534
F-0.5322424591004878
sg435
F-0.3760885776703162
sg535
F-0.09248255719724853
sg28
F2.6925085749097097
sg294
F3096.5761210044384
sg74
F3.3423599138553786
sg630
F0.7401353435846716
sg32
F0.7163178358054766
sg33
F1.6528576407697106
sg96
F0.0955518198445167
sg35
F1.463802895497761
sg36
F0.19480960859145358
sg37
F0.7745065348966451
sg60
F795.0375813081737
sS'68'
p681
F-0.3443862702398791
sg42
F36.962835036609654
sg537
F-0.02620921107368406
sS'89'
p682
F-0.015117089854713337
sS'77'
p683
F-1.5639683934505175
sg301
F-2.1082321874847576
sg447
F-1.1537406464628126
sg302
F-1.8463058329161062
sg448
F-1.141265750221456
sg303
F-2280.9474153560986
sg304
F-1.9641600815309364
sg350
F-0.92764423039634
sg539
F-2.814129111023107e-09
sg540
F-2.814129111023107e-09
sg305
F-1.6936307274287024
sg307
F-1.80146636529906
sg308
F-1.1906143445424182
sg110
F0.036066539270876136
sg111
F0.07213307854175227
sg310
F0.6388689997510758
sg65
F2.482819756810311
sg313
F2.118193219743046
sg67
F1.4589560180586887
sg315
F3.5860983110732514
sg69
F0.9986745464729729
sg70
F2.3017821011763435
sg71
F3.5226804065441146
sg72
F2.5716200449896127
sg73
F4.087550024517001
sg75
F696.4047261119107
sg542
F-0.02161192152654741
sS'72'
p684
F-2.278676379819826
ss(g1
g115
tp685
(dp686
g565
F0.1345425994618279
sg6
F-91.52572064329098
sg656
F0.0949086931619542
sg118
F1070.5643750945292
sg556
F8.534662388935151e-10
sg605
F0.6324200927439184
sg120
F-0.04231425800692962
sg14
F0.5261677277209419
sg122
F0.29195376139175133
sg15
F0.3993994635148526
sg124
F0.817157175084
sg125
F0.27908380138766176
sg126
F0.48727754037358206
sg127
F3.105043565173144
sg128
F0.2658141180552098
sg129
F-0.9878841917167389
sg130
F-0.9438886467529766
sg24
F2.549342492135815
sg132
F-861.617176414262
sg133
F1.5796225967123236
sg27
F0.009714591640858984
sg657
F1.8965916419855522e-10
sg136
F-2873.684973268436
sg658
F9.482958209927761e-11
sg553
F6.638070746949493e-10
sg659
F9.482958209927761e-11
sg34
F3.7931832839711044e-10
sg11
F1.8965916419855522e-10
sg554
F2.844887462978374e-10
sg239
F2.0414618504947883
sg549
F0.03347501338646704
sg241
F0.013920444988754799
sg39
F2.844887462978366e-09
sg138
F-1.4800820093932767
sg42
F9.173842606106486
sg562
F0.007778748893942659
sg21
F-0.29853117403288215
sg141
F-2.4833070474638075
sg142
F-1.6341298896329874
sg143
F-3.042154392669986
sg144
F-2.940364064468418
sg145
F-1.0871835755400232
sg146
F58.06158655157367
sg147
F-0.4577492928356817
sg148
F-0.2605616440395614
sg250
F0.1718058627905055
sg660
F0.1477400872353646
sg661
F0.09133136648492565
sg591
F0.09116349788021683
sg586
F0.01787119799623691
sg662
F0.012886352005600506
sg149
F-0.8768823068713467
sg60
F-41.23203004772864
sg62
F1.422443731489183e-09
sg63
F9.482958209927837e-10
sg616
F0.23544105087103126
sg663
F0.36327676530801956
sg606
F0.10780723860544027
sg617
F0.26600762732202243
sg618
F0.08908696331145914
sg619
F0.30139473810252426
sg620
F0.09928474641153252
sg664
F0.018417991371165596
sg665
F0.8857197577636263
sg38
F1.1379549851913496e-09
sg44
F8.534662388935151e-10
sg555
F8.534662388935151e-10
sg75
F-54.67174190578689
sg76
F1.8965916419855522e-10
sg666
F0.35116277519897077
sg77
F1.5172733135884418e-09
sg161
F-0.9275175555948805
ss(g277
g321
tp687
(dp688
g304
F2.031250629676405
sg364
F-0.019782228433514716
sg325
F-21.145681092054254
sg365
F-0.07291652089563545
sg327
F-2.2958640096020555
sg328
F-1.8566458796020402
sg329
F-2.1765118271600623
sg330
F0.8131077840547106
sg331
F-0.5186971895620767
sg332
F0.5018651474276248
sg288
F0.44180424339751473
sg289
F1.375611640575092
sg438
F0.7029989442757568
sg290
F0.5659384548471659
sg335
F-1641.7540056182509
sg292
F1.2663345470512817
sg433
F0.23416635149957787
sg434
F0.6654178815944352
sg435
F0.4257100287056124
sg436
F0.16855245463695365
sg337
F-1.854665533358814
sg338
F2855.0718171408766
sg339
F-4.722891925150106
sS'47'
p689
F-1.375655277757754
sg367
F-0.5374509532764057
sg341
F-2.466991002397514
sg598
F-0.1694684406960672
sg343
F-0.9212420201716354
sg599
F-0.3040449587398508
sg345
F-0.4671465009342356
sg346
F-0.029673342650272026
sg308
F1.267031744755434
sS'68'
p690
F0.6861976248566608
sg42
F-21.522503072308545
sg443
F0.091047133979736
sg347
F-1.1897720510643781
sg682
F0.013433146173158966
sg336
F-0.02671263195137088
sg446
F1.401915732058884
sg301
F1.7692414784194597
sg447
F1.4627394090519
sg302
F2.316640440790186
sg448
F1.0602342024600224
sg349
F-392.88143347437074
sg6
F-582.8843898852106
sS'70'
p691
F1.545579827389306
sg450
F0.01803594491786806
sg451
F0.006486838503170093
sg530
F0.0031842090317320115
sg305
F2.0170073215315165
sg592
F0.0014973594896264307
sg307
F1.7903690672265833
sg60
F-946.3165276116043
sg368
F-0.10506879540318952
sg351
F-0.26978482322641645
sg310
F-2.54199418212698
sg353
F-3.502483387362171
sg354
F-3.7753981286238165
sg355
F-2.3667756047595376
sg356
F-5.8798177224141
sg357
F-1.4523375256738593
sg358
F-1.7938676526405255
sg359
F-4.119457066105659
sg360
F-2.4929341461063745
sg361
F-3.542637650978343
sg75
F-806.4125593059875
sg456
F0.0787002791467761
sg684
F2.095107630091861
ss(g321
g1
tp692
(dp693
g51
F-1.521220230712151
sg364
F0.020230725917627507
sg325
F30.63840694602294
sg326
F0.03860775884575838
sg327
F3.141043316182055
sg328
F1.9640942940830057
sg329
F3.8021028470649645
sg330
F0.9312339254396638
sg331
F1.5313330534134717
sg332
F-0.3130719111380391
sS'66'
p694
F-0.10370596457557996
sg19
F-1.0382566312423842
sg20
F-0.6056406595111451
sg21
F-0.8016025896497769
sg335
F-820.9965641260338
sg23
F-1.7247042276496418
sg24
F-0.8942621199988903
sg22
F-0.64925326926989
sg26
F-1.1144359999335047
sg27
F-0.45367468147252665
sg337
F1.4132848962791194
sg338
F-2735.5246177683966
sg339
F4.544809259938106
sg340
F1.0250253914600382
sg367
F0.41676048859828124
sg341
F2.165649672491539
sg342
F0.07196617634523748
sg343
F0.8652491940562496
sg344
F0.1774479388987064
sg345
F0.30746428370618634
sg346
F0.03034608886221967
sg241
F-0.012498893774165602
sg40
F-1.071119912991082
sS'68'
p695
F-0.8566059071798523
sg42
F22.837867883321714
sg239
F-0.18699684922567272
sg347
F1.1234145796055333
sg15
F-0.21345401702869995
sg662
F-0.017129716961375656
sg336
F0.029265419540273632
sg45
F-1.2328653458893675
sg46
F-1.910511617034054
sg47
F-1.2063990840506271
sg48
F-2.596270611939461
sg615
F-1.0724178654761236
sg349
F2336.5400281947627
sg6
F632.6693527751265
sS'70'
p696
F-1.9002139038771972
sg250
F-0.11393129596581851
sS'90'
p697
F-0.13737836006517945
sg661
F-0.10238879247656864
sS'92'
p698
F-0.06924594900580067
sg57
F-2.4690663466019154
sg586
F-0.01975240715702755
sg59
F-1.5508775784689794
sg60
F1001.6064046559081
sg368
F0.07884618151333835
sg351
F0.1416150530753256
sg352
F3.3745223926014023
sg353
F3.539709723634112
sg354
F4.089695510646043
sg355
F2.69921581647315
sg356
F6.618059706923862
sg357
F1.244009499095911
sg358
F1.3940236590519548
sg359
F4.022442852282541
sg360
F1.7805706823544063
sg361
F3.083967930766771
sg75
F837.9764468156981
sg14
F-0.5683805106762793
sg50
F-2.130607590525245
ss(g2
g1
tp699
(dp700
g5
F1.0130253845813415
sg6
F743.4368984588002
sg7
F0.029794129284021108
sg8
F5.194095667058742
sg9
F-1.3355828459084211
sg10
F75.10604516766374
sg11
F-0.009403395491710457
sg12
F3.6317492147487878
sg13
F1.4777355265884773
sg14
F-0.1856549800253637
sg15
F-0.22795417629528952
sg16
F1.2438938723437856
sg17
F1.4881484261180167
sg18
F-0.3096566279779187
sg19
F0.3611775580810972
sg20
F-2.8614634452479044
sg21
F-0.9443711073722698
sg22
F-0.5462932285990684
sg23
F-1.103325703502516
sg24
F-1.804136536343445
sg25
F-522.063922779722
sg26
F-1.2356994296000727
sg27
F-0.3171339695609897
sg28
F2.458616001722832
sg29
F1553.1677820197858
sg30
F3.3511596521239246
sg31
F0.44692688315976437
sg32
F0.585412366695069
sg33
F1.5853014439937994
sg34
F0.06069052334799271
sg35
F1.3050259200291354
sg36
F0.15187357440464502
sg37
F0.6090819060997783
sg38
F-0.056420372950262664
sg39
F-0.1410509323756564
sg40
F-0.8105023540436798
sg41
F-476.22024065267584
sg42
F52.47112866732886
sg43
F-1.1876382701884876
sg44
F-0.04231527971269697
sg45
F-1.1338611817578221
sg46
F-1.66547405748936
sg47
F-0.7023555410691793
sg48
F-1.9326507771505492
sg49
F-0.6449756664491176
sg50
F-2.0562296640378523
sg51
F-1.5182462914981312
sg52
F-0.27598872016562354
sg53
F-0.009124408594588093
sg54
F-0.046837830069020925
sg55
F-0.05018424727023442
sg56
F-0.011952516881924629
sg57
F-1.9362889741992724
sg58
F-0.013686612891882116
sg59
F-2.1239553893472896
sg60
F965.1021861980211
sg61
F-0.07236731363921757
sg62
F-0.04073133690380719
sg63
F0.012571281109490098
sg64
F1.0011798745353124
sg65
F3.6541528667295085
sg66
F2.8163604372077518
sg67
F0.8220659629259582
sg68
F4.844469424094254
sg69
F0.8944750333680748
sg70
F1.9609289174538558
sg71
F3.102664863371876
sg72
F2.682619262336617
sg73
F2.3728741241963567
sg74
F5.056413706275578
sg75
F842.3075624864168
sg76
F-0.009403395491710457
sg77
F-0.07522716393368366
ss(g162
g114
tp701
(dp702
g6
F-588.7133630619381
sg165
F-24.578712038342925
sg158
F-0.231100500534034
sg119
F-5.5851813986174585
sg167
F-0.593180018520962
sg168
F-7.166455592098011
sg169
F0.9554986797076048
sg123
F-4.445437419851578
sg231
F-1.8861090976491879
sg172
F-3.4318138994832315
sg173
F-4.285120716292758
sg174
F2.341591789522359
sg175
F1.249023193074549
sg176
F1.0162487121560828
sg177
F2.958234749741869
sg178
F2.033285155752806
sg179
F1.13463364457816
sg180
F2.9093110097279813
sg181
F1.0089201785883875
sg135
F-0.2930240080999644
sg182
F1575.6058793467182
sg233
F-1.6734310481584156
sg184
F1.3500420875657513
sg42
F-23.045532133275405
sg139
F-0.14771703122592603
sg185
F1.9636137363613866
sg186
F2.095270435829326
sg187
F0.5406302717514408
sg188
F0.6869840984641858
sg189
F0.12203337274294422
sg190
F-2607.413708356441
sg191
F0.10588712400554336
sg192
F-0.7996601621967564
sg193
F0.4231440923372488
sg194
F0.24715088097711457
sg195
F0.07143128635321064
sg196
F0.17688204839599175
sg197
F-0.7605576919549113
sg259
F3.165626374098577e-09
sg198
F3.1476139207934435
sg60
F-845.0940813565645
sg150
F-3.6752997219812746
sg151
F-2.447600507847139
sg152
F-1.3934134042390784
sg153
F-3.1686145313346827
sg154
F-0.46139687204162044
sg155
F-2.83516595415652
sg156
F-1.336999976114662
sg157
F-0.2683294346176406
sg205
F1.0249707935879995
sg159
F-1.1510531886007558
sg160
F-0.7377507097230981
sg209
F3824.00360966149
sg75
F-697.5261200530451
sg210
F0.29983430188329113
ss(g277
g162
tp703
(dp704
g280
F0.05440212462099627
sg6
F269.6224845655784
sg281
F50.99080603485949
sg282
F2.1003466003118697e-05
sg283
F1.273104606472203
sg174
F-1.2267412895445324
sg284
F2.134268043165988
sg285
F2.69705143529062
sg286
F2.1733707780015936
sg287
F1.353149166077664
sg288
F1.5943963016260494
sg289
F1.8423583850680532
sg167
F0.7898295886807214
sg290
F-1.511378300213202
sg291
F-4813.4247751046705
sg292
F-2.1499162005288253
sg178
F-2.474713760905295
sg176
F-0.2819066570350121
sg180
F-2.058642899468361
sg181
F-1.4484538742805066
sg293
F1.1158091314156724e-05
sg294
F-3702.991830634599
sg295
F6.5635831259745265e-06
sg296
F1.9690749377923756e-06
sg297
F6.563583125974593e-07
sg298
F3.938149875584751e-06
sg299
F6.5635831259745265e-06
sg179
F-0.721110232543167
sg300
F6.563583125974593e-07
sg60
F441.58262062609504
sg42
F18.9130535699662
sg169
F-0.6677358269334159
sg185
F-0.25606693199674013
sg301
F-0.19737027672330124
sg187
F1.2575004483566194
sg302
F0.500585363449644
sg189
F0.7936430978298898
sg303
F4795.027021334006
sg304
F1.5429448007499313
sg192
F1.42114500042206
sg193
F-0.4674693106327023
sg194
F-0.4227876880279003
sg195
F-0.09218108343925373
sg196
F-0.09893045984654648
sg305
F1.9835779513636742
sg306
F-0.015008106232244233
sg307
F-1.2667048771850198
sg308
F-0.12417638164946869
sg309
F6.563583125974593e-07
sg310
F1.5025636409943486
sg311
F0.5422230897525687
sg312
F0.653430932219588
sg313
F0.6092173138176273
sg314
F1.3127166251949186e-06
sg315
F0.7483335943958218
sg316
F5.90722481337712e-06
sg317
F3.2817915629872632e-06
sg205
F-1.583958672529983
sg318
F0.009502679832324107
sg319
F2.4285257566105954e-05
sg320
F9.845374688961857e-06
sg75
F327.9470455855868
sg210
F1.4446485324720555
ss(g369
g211
tp705
(dp706
g6
F255.49580028729017
sS'37'
p707
F4.855590429230844e-08
sg404
F2151.968708284587
sS'36'
p708
F0.016724249227719465
sg214
F0.798938804448396
sg393
F0.15459145868001528
sg463
F-0.42506070907279514
sg405
F-2.1809601577892486
sg216
F-1.9034472082109917
sg406
F0.917244417700148
sg464
F0.17234129679289514
sg407
F-0.9207502215293276
sg432
F0.08034148424475132
sg408
F0.440309456185947
sg409
F-1207.3760888189217
sg411
F7.13529200946967
sg377
F2.336562000985582
sg413
F-4460.702851176566
sg401
F0.6355499202101537
sS'47'
p709
F1.8563411696555387
sg380
F0.1526404938559653
sg381
F-0.11140404488358012
sg382
F0.013774725045603071
sS'43'
p710
F1.8213541222869167
sS'40'
p711
F0.0044171377160542305
sS'41'
p712
F5.817601597878538e-07
sg386
F8.786904644953194e-09
sg510
F-0.22747299285511036
sg42
F11.371273820342775
sS'49'
p713
F0.24525004267691106
sg419
F-1.1263296084255816
sg420
F-1.4076982107903282
sg421
F-2.383908633938647
sg422
F-0.5141755310428072
sg511
F0.007988112858034595
sg423
F-0.9069882128606169
sg424
F0.2884765788243956
sg425
F-3.927715678260043
sg426
F-0.39136964001504626
sg60
F411.2563680686865
sg389
F2.6920281656136616e-07
sS'38'
p714
F0.004416944291769061
sg391
F1.5030493068562552
sg392
F0.82079836872077
sg394
F6.358700689182753
sg395
F2.242153084155643
sg225
F-1.6151297056417104
sg397
F0.5388779980278512
sg398
F1.239298804682919
sg373
F1.1488787020672613
sg227
F2.33922936038375
sg400
F3.7695747859706183
sg75
F340.1346145689488
ss(g277
g114
tp715
(dp716
g6
F-328.0598023099768
sg281
F4.076486521621805
sg283
F-3.625688599925346
sg152
F-1.00030086958964
sg284
F-3.296414041172441
sg285
F0.6597387186338564
sg286
F-1.9712015592404066
sg231
F-1.0459851266356273
sg288
F-1.2576743110655002
sg289
F-1.3045040089212891
sg249
F0.023003565627039323
sg290
F0.5076569910435415
sg291
F1961.9496274237003
sg292
F1.3510477080478716
sg433
F0.25033990404660517
sg534
F0.5819094130063027
sg435
F0.46763008225695685
sg535
F0.13553822679154992
sg135
F-0.41139575670335626
sg294
F-1512.2197328309114
sg536
F0.5340417352328432
sg537
F0.042484750164002105
sg60
F-471.7956436952117
sg42
F-5.137843980661567
sg139
F-0.21411405132211034
sg445
F0.01916308035395247
sg538
F1.0085000400490742
sg301
F1.9574161800989385
sg447
F1.1776985388333203
sg302
F1.7353698489478773
sg248
F0.7650476918311045
sg303
F-1290.0222645929657
sg304
F1.4367393876672419
sg230
F0.25999096962988616
sg539
F0.02196771039518321
sg540
F0.00549192759904746
sg452
F0.005491927598711927
sg305
F0.637289906302681
sg307
F1.7409037935386567
sg308
F1.5003429340342365
sg310
F-2.7142271397660926
sg151
F-2.4486506601479294
sg313
F-2.7495834040072737
sg154
F-0.730850466979627
sg315
F-2.1100437071300244
sg156
F-1.522643956416082
sg541
F-0.63529421373199
sg158
F-0.578952420180961
sg159
F-1.2305699350991233
sg160
F-1.0712884248250254
sg75
F-374.9757636449677
sg542
F0.07659144512191132
sg276
F1.165257782424056
ss(g114
g78
tp717
(dp718
g262
F0.8171874668056139
sg83
F-18.32061212965406
sg119
F2.2036323229789168
sg152
F1.1471941762820352
sg121
F4.8689345039882435
sg84
F-0.9340885920261809
sg123
F1.8688994278186355
sg231
F-1.0160326149764365
sg232
F1.8311819541116905
sg85
F0.09981601372946645
sg86
F-0.3734619759733975
sg263
F0.13131385520431182
sg88
F-3009.395464198345
sg89
F-1.0783907997694286
sg90
F-0.1316997357116047
sg264
F-0.017500810053314993
sg92
F-0.1438384959329442
sg265
F-0.07509884342304925
sg135
F0.1672552458558699
sg94
F-897.0053320384317
sg208
F-0.17910421976670193
sg95
F-0.10213799094802907
sg266
F-0.8203030746657518
sg82
F-0.006099419336319935
sg183
F-0.006099419336319935
sg267
F-0.0030163942461032566
sg97
F-0.006099419336319935
sg268
F0.010945187598065804
sg249
F0.21047508995326544
sg42
F-4.380934904348659
sg269
F0.08106212702946998
sg270
F-0.14482617576994558
sg102
F-3.0342794211984
sg271
F-0.5353892449906303
sg104
F-1.2858486964575768
sg272
F-0.8044515860144598
sg248
F-0.056414711255142476
sg107
F2741.4984837899406
sg6
F193.61937421813136
sg108
F-1.6028947444778705
sg109
F-1.723585951624622
sg60
F261.67175419585095
sg150
F2.9509416743413803
sg112
F0.34407851747816354
sg153
F2.642643389906323
sg154
F0.8406109462048986
sg155
F1.9345311883185499
sg156
F0.9668598105418751
sg273
F-0.04934333266192719
sg158
F0.33361137664599705
sg159
F0.6820487564015296
sg160
F-0.18364678436185403
sg274
F-0.8203030746657518
sg75
F196.72617224824035
sg275
F-0.0012289660236858655
sg276
F-2.6026748833946307
ss(g211
g162
tp719
(dp720
g6
F589.6044361714587
sg165
F22.318312044853183
sS'50'
p721
F4.602328674899984
sg214
F1.9503558285526765
sg167
F-0.0950255197974681
sg168
F7.32613025946007
sg169
F-0.9891002227354083
sg216
F3.163342310103972
sg406
F0.5902301295178256
sg172
F0.7264026390324503
sg173
F3.4131560436771395
sg174
F-3.013753810489607
sg175
F-1.4343570918666355
sg176
F-1.0671580305413761
sg177
F-2.543959730526752
sg178
F-2.817718931852005
sg179
F-0.894986005290682
sg180
F-2.3197657480197633
sg181
F-0.7450664987778493
sg182
F509.3924654010899
sg405
F3.779484949755004
sS'45'
p722
F0.30235190021983754
sg184
F-1.2931070361733379
sg42
F17.99567895885979
sg185
F-1.2642924149216381
sg186
F-0.3929362741878807
sg187
F0.6331186242808495
sg188
F-0.7125429441990765
sg189
F-0.5309653695853298
sg190
F605.7468577301488
sg191
F-0.9940240114922482
sg192
F7.1966626072840905
sg193
F-0.20822381662791833
sg194
F-0.3835269896700171
sg195
F-0.08640397407726086
sg196
F-0.19858214010368222
sg197
F0.6048720914374923
sg198
F-3.849676606103059
sg60
F773.0226074452626
sS'59'
p723
F0.017705739372000307
sg221
F4.199332640688479
sg222
F0.014297465420915432
sS'55'
p724
F0.6792529133104924
sS'54'
p725
F1.249886446292319
sg225
F4.6260997214591475
sg205
F-1.1977586603710182
sg227
F0.06060761768552696
sg209
F-2160.425490949039
sg75
F664.4780352064047
sg210
F1.4399529859783147
ss(g369
g114
tp726
(dp727
g461
F-0.21030748652737835
sg372
F0.008987957377649342
sS'DIST_BTWN_NOTES_2'
p728
F13.986798740073517
sg431
F0.05207435764294497
sg374
F-1.1091224163134314
sg393
F-0.47285622354749307
sg463
F-0.9632293258726605
sg378
F-0.43935139490941755
sg123
F-1.2440430295530474
sg376
F-0.8779794086139479
sg232
F-0.8315931918030077
sg481
F-1.3372791371513664
sg432
F-0.5388105593556308
sg465
F-0.8094701172624311
sS'AVG_NOTE_VALUE_2'
p729
F358.96366992558666
sg410
F-0.1227638628494272
sg264
F-0.002716041139214401
sg415
F-0.008339417999218696
sg377
F2.038299278914716
sS'LOWEST_NOTE_2'
p730
F-2289.0162284916814
sg401
F1.2263758308340287
sS'47'
p731
F1.9190071138044116
sS'44'
p732
F0.3680288270265287
sg381
F1.0479604925222976
sS'42'
p733
F0.21442321633212683
sg440
F1.3355068456433248
sS'40'
p734
F0.2978470501213461
sg442
F0.4047056260145162
sg386
F0.0006395999922993112
sg268
F-0.040951686056050055
sg42
F12.220754472799815
sS'49'
p735
F0.7109353551850707
sg414
F-0.06671534399374957
sg538
F-0.32122093387818496
sg271
F-0.1695418465528999
sg580
F-0.28764057126202314
sg473
F-0.4386340139835824
sg248
F-0.22530094559362704
sS'HIGHEST_NOTE_2'
p736
F64.86007980578862
sg6
F216.01746060859142
sg449
F-1.1055725384348336
sg582
F-0.25998041620146733
sg60
F377.79361028988325
sg389
F0.0878234010382036
sg714
F0.2543872294412587
sg150
F-0.7763057597013163
sg392
F0.5121799463658329
sg394
F2.170663688127391
sg395
F1.9242398351655208
sg396
F0.9563655503695244
sg397
F-0.4811535771193147
sg398
F1.142738891259667
sg373
F3.6530296537665223
sg399
F1.8031703983227536
sg400
F2.5823219697459185
sg75
F312.4454579218894
sg458
F-0.607839954463435
ss(g369
g321
tp737
(dp738
g461
F0.42008981429740033
sg372
F-0.005427286243335675
sg325
F-0.5633499930960862
sg462
F0.03061942086984667
sg327
F-0.27783693962816197
sg393
F-1.027185089664204
sg329
F-0.505718208648293
sg330
F0.1560879118850296
sg331
F-0.6750864118104069
sg332
F-0.01312456430229393
sg464
F0.5808522130963539
sg576
F0.5784769515620172
sg432
F0.0935125497919905
sg465
F0.594268544535646
sg335
F-2352.373729352606
sg336
F-0.022947396461679107
sg337
F0.6635102330809975
sg338
F994.4822108785643
sg339
F-1.3964502494558757
sg340
F0.4956592785142087
sg367
F-0.050764892731734665
sg341
F-1.0514149339426238
sg342
F0.1320051826569505
sg487
F0.3219794497873141
sg344
F0.0009477314628254945
sg488
F0.20412297277517596
sg346
F-0.026318263788621375
sg577
F0.0012625480158895328
sg42
F-1.049093121940258
sg491
F-0.15230562285838278
sg578
F0.0004208493386298441
sg579
F0.01914834666507624
sg580
F0.06508021365624522
sg473
F0.1745133985308422
sg581
F0.0747040754372969
sg349
F704.8521083552137
sg6
F-31.614263612376547
sg449
F0.12139237960451021
sg582
F0.0012625480158895328
sg60
F-55.99731385511497
sg368
F0.03550108059017667
sg475
F-0.0034781932409995247
sg391
F-1.1104170499864905
sg353
F0.1842208753806657
sg354
F0.867874564350103
sg355
F0.3612854424419691
sg356
F-2.024508113689997
sg357
F-0.47576424222209635
sg358
F0.10081942951673731
sg359
F0.2224686778314162
sg360
F0.4484942039504728
sg361
F-0.24282884754624126
sg75
F-74.36159728736654
sg458
F0.3654550017756972
ss(g2
g369
tp739
(dp740
g461
F-0.6215243115253423
sg372
F0.037796052279515255
sS'DIST_BTWN_NOTES_2'
p741
F63.46905498199587
sg462
F-0.0032278341496287653
sg12
F0.8536553849665133
sg393
F1.1052191085226886
sg8
F0.9211895296884967
sg378
F1.0730389175163986
sg16
F0.3428175275011158
sg17
F-0.1101193755536508
sg464
F-0.6833794304699234
sg333
F-0.6385425856959399
sg432
F0.15964505363351525
sg87
F-0.886802401716808
sS'AVG_NOTE_VALUE_2'
p742
F44.266954454242516
sg377
F-0.2268694323152701
sS'LOWEST_NOTE_2'
p743
F2914.633125641135
sg401
F2.1445236298467587
sg545
F-1.214698407166358
sg466
F0.2409575424996595
sg381
F1.1044572328487228
sg382
F0.06502749191217934
sg467
F-0.9188778719471214
sg468
F0.1571766742259955
sS'41'
p744
F0.5024286892423443
sg577
F-0.0072176171343104195
sg42
F22.77524483246523
sg471
F0.7667074803594344
sg578
F-0.002405872378103472
sg579
F-0.04228040077710063
sg580
F-0.09232043504113259
sg473
F-0.29828132222492093
sg581
F-0.09136354873283589
sS'HIGHEST_NOTE_2'
p745
F-927.4668480816416
sg6
F57.93045767950576
sg449
F-0.3696578676964564
sg582
F-0.0072176171343104195
sg60
F62.47874700437781
sg389
F0.0281147592925235
sg475
F0.06493589848945039
sg391
F0.3913578311447092
sg65
F0.6228851317620024
sg66
F-2.9062149561508583
sg395
F-1.4445205478060734
sg68
F1.0168467062758548
sg397
F0.9939718131593513
sg398
F0.5984218514939849
sg71
F-2.157277912942366
sg399
F1.2973362674069304
sg400
F0.5808877223642389
sg75
F52.03167861657962
sg458
F-0.5842087418323353
ss(g369
g277
tp746
(dp747
g6
F503.80567812750945
sg430
F0.01626203531256186
sg281
F21.36293793883829
sg431
F0.08417652681992038
sg283
F1.9688150025392313
sg393
F0.2873035916294114
sg284
F1.2880674707635258
sg285
F-0.39211973613700357
sg286
F-0.20128067166961183
sg376
F-0.10815872252278538
sg288
F0.1388083849045775
sg289
F-0.5278471207217732
sg432
F-0.7525469576203478
sg290
F-0.4507939491176817
sg291
F-1839.1673065102682
sg292
F-1.1384916960802542
sg433
F-0.30821923652581906
sg434
F-0.6511351337076096
sg435
F-0.4687936749846173
sg436
F-0.13742217152827746
sg377
F2.9057869895746586
sg294
F-2030.6516693659448
sg401
F1.7030795048580158
sg437
F2.0287288801985315
sg438
F-0.6673200993643001
sg381
F1.0624661366399593
sg439
F0.15576371745947068
sg440
F1.7110623840988142
sg441
F0.17438019184536954
sg442
F0.5008488245070736
sg386
F1.1232874242594099e-12
sg60
F830.8953043646382
sg42
F19.044311374844646
sg443
F-0.11305014249828575
sg444
F0.5486231719434125
sg445
F-0.04759276209939634
sg446
F-1.2559089127197658
sg301
F-1.52623530930655
sg447
F-1.366194279087802
sg302
F-2.099293497924513
sg448
F-0.9761352381557276
sg303
F1417.5088328104578
sg304
F-1.329991092844763
sg449
F-1.3296481539237504
sg450
F-0.020839734999368434
sg451
F-0.0072656433851994
sg452
F-0.004524697204945315
sg453
F-1.3338686628811862e-12
sg305
F-1.189771433222033
sg306
F-1.1115572190676547e-12
sg307
F-1.7443460094586236
sg308
F-1.1855552482389624
sg454
F0.1703336913498732
sg455
F0.42356402591008985
sg310
F0.7844787226754004
sg392
F3.1263225592279147
sg313
F5.023158853800451
sg395
F2.702881627996436
sg315
F2.728997312053661
sg397
F0.8072442860899057
sg398
F1.9986928316919321
sg373
F4.949447638821472
sg399
F3.3847943753461402
sg400
F2.9646796807056073
sg75
F668.1252687412455
sg456
F-0.05599419731908474
sg457
F0.33655878722423155
sg458
F-1.4471681539117844
ss(g162
g211
tp748
(dp749
g6
F-589.6044361714587
sg165
F-22.318312044853183
sg721
F-4.602328674899984
sg214
F-1.9503558285526765
sg167
F0.0950255197974681
sg168
F-7.32613025946007
sg169
F0.9891002227354083
sg216
F-3.163342310103972
sg406
F-0.5902301295178256
sg172
F-0.7264026390324503
sg173
F-3.4131560436771395
sg174
F3.013753810489607
sg175
F1.4343570918666355
sg176
F1.0671580305413761
sg177
F2.543959730526752
sg178
F2.817718931852005
sg179
F0.894986005290682
sg180
F2.3197657480197633
sg181
F0.7450664987778493
sg182
F-509.3924654010899
sg405
F-3.779484949755004
sg722
F-0.30235190021983754
sg184
F1.2931070361733379
sg42
F-17.99567895885979
sg185
F1.2642924149216381
sg186
F0.3929362741878807
sg187
F-0.6331186242808495
sg188
F0.7125429441990765
sg189
F0.5309653695853298
sg190
F-605.7468577301488
sg191
F0.9940240114922482
sg192
F-7.1966626072840905
sg193
F0.20822381662791833
sg194
F0.3835269896700171
sg195
F0.08640397407726086
sg196
F0.19858214010368222
sg197
F-0.6048720914374923
sg198
F3.849676606103059
sg60
F-773.0226074452626
sg723
F-0.017705739372000307
sg221
F-4.199332640688479
sg222
F-0.014297465420915432
sg724
F-0.6792529133104924
sg725
F-1.249886446292319
sg225
F-4.6260997214591475
sg205
F1.1977586603710182
sg227
F-0.06060761768552696
sg209
F2160.425490949039
sg75
F-664.4780352064047
sg210
F-1.4399529859783147
ss(g369
g115
tp750
(dp751
g6
F631.2037154665896
sS'37'
p752
F8.58375459257065e-09
sg118
F4076.4717335258138
sg387
F2.0819861074547707e-07
sg374
F2.6211631646058806
sg120
F-0.871310375210575
sg463
F2.750795063141608
sg122
F0.9818610074032929
sg375
F0.8631334357713517
sg124
F0.8386148623881052
sg125
F0.5886533143347918
sg126
F0.525201102953875
sg127
F-0.7938410988582483
sg128
F-1.2788203642177496
sg129
F-0.85464902452437
sg130
F-2.0223005554034468
sS'86'
p753
F-0.39171142653718977
sg132
F-2615.827903235384
sg133
F-0.4001300692178369
sS'85'
p754
F-0.2950925384531579
sg377
F2.757814827201553
sg136
F-4779.707718652611
sg401
F0.8600333712159668
sg379
F2.0485288785936784
sg466
F0.14203269645963487
sg381
F0.1339124418550039
sg382
F0.01047576843236822
sg383
F2.039566969060087
sg384
F0.01047580535617253
sg385
F1.2462149083094155e-06
sg138
F-2.2201944847751913
sg42
F30.843235021863023
sg600
F-0.014022458265784557
sg388
F0.1886617740404999
sg140
F-0.5943270196580385
sg141
F-2.242068325265746
sg142
F-2.727563188037248
sg143
F-1.7381171062901988
sg144
F-3.0314792510031987
sg145
F-2.131563664794604
sg146
F40.47178640129967
sg147
F-0.825401251195424
sg148
F-1.4177847034871185
sg149
F-2.0535638563013854
sg60
F950.3783856764272
sg389
F5.307137782860652e-08
sg390
F0.010475661976736326
sg391
F1.7848012276560723
sg392
F3.7674539864932544
sg393
F0.38703222479148397
sg394
F7.361413369271481
sg395
F3.7646915305453774
sg396
F3.5677802530112483
sg397
F0.7073826048405343
sg398
F1.6523270679268367
sg373
F6.732419141175579
sg399
F2.6584764160729786
sg400
F3.80984113788743
sg75
F782.3290219722461
sg161
F-1.9238000016259142
ss(g114
g2
tp755
(dp756
g262
F0.805744873556396
sg7
F-0.02678213821235596
sg741
F-80.18762063081631
sg12
F2.6106164120424182
sg152
F0.12755408281127018
sg8
F1.9455568985221499
sg233
F-1.0313351942706546
sg16
F1.1249392055137855
sg17
F-0.18955212719393852
sg232
F1.5667815436346821
sg333
F1.5959331572736994
sg249
F-0.015545725604764363
sg87
F0.5048620730766114
sg742
F-1111.6952164901593
sg264
F0.0015656861547256769
sg135
F-2.2523872576681407
sg743
F-1538.2911002965343
sg74
F-4.518731415902183
sg630
F-0.5760285355097253
sS'44'
p757
F-0.7277036797686284
sS'45'
p758
F-1.4293077211748522
sg96
F-0.070993155509844
sS'43'
p759
F-1.3011830266811582
sg36
F-0.14754344655196155
sg744
F-0.6793144198449262
sg490
F0.007108244804279014
sg42
F-35.037535840539384
sS'49'
p760
F-0.6358965863766836
sg538
F0.004305615601207752
sg271
F0.14833084367646276
sS'75'
p761
F0.16162289774500335
sg272
F0.09933952607510577
sg248
F0.26063698931974977
sg745
F1725.2210785313355
sg6
F-258.4496914584461
sg230
F0.6020362197045401
sg60
F-335.94766467104307
sg110
F-0.02678213821235596
sg111
F-0.05356427642471192
sg150
F1.5537859381345611
sg65
F0.451739325580541
sg66
F0.41759399081381926
sg154
F-0.8412169017479235
sg68
F-1.3350837980788715
sg156
F0.6204550130908025
sg541
F-2.3644252392320615
sg71
F-2.9646942208546854
sg159
F-1.904722939434691
sg160
F-3.1754554599339153
sg75
F-301.7113413064921
sg276
F1.021386458308028
ss(g277
g2
tp762
(dp763
g5
F-1.0842902016870495
sg6
F-592.6213458987085
sg7
F-0.036066539270876136
sg281
F-63.96035850154396
sg283
F-2.3378788945793603
sg13
F-0.6268373005389141
sg284
F-3.8262824073638027
sg285
F-0.6007462083263568
sg286
F-0.7652095098139782
sg17
F-0.5965111822783562
sg288
F0.7835572819414381
sg289
F0.7665792764327588
sg536
F0.43637108724858437
sg290
F0.2569556892175289
sg291
F-1173.4895838047573
sg292
F1.3152847890300088
sg433
F0.1300114953952312
sg534
F0.5322424591004878
sg435
F0.3760885776703162
sg535
F0.09248255719724853
sg28
F-2.6925085749097097
sg294
F-3096.5761210044384
sg74
F-3.3423599138553786
sg630
F-0.7401353435846716
sg32
F-0.7163178358054766
sg33
F-1.6528576407697106
sg96
F-0.0955518198445167
sg35
F-1.463802895497761
sg36
F-0.19480960859145358
sg37
F-0.7745065348966451
sg60
F-795.0375813081737
sg681
F0.3443862702398791
sg42
F-36.962835036609654
sg537
F0.02620921107368406
sg682
F0.015117089854713337
sg683
F1.5639683934505175
sg301
F2.1082321874847576
sg447
F1.1537406464628126
sg302
F1.8463058329161062
sg448
F1.141265750221456
sg303
F2280.9474153560986
sg304
F1.9641600815309364
sg350
F0.92764423039634
sg539
F2.814129111023107e-09
sg540
F2.814129111023107e-09
sg305
F1.6936307274287024
sg307
F1.80146636529906
sg308
F1.1906143445424182
sg110
F-0.036066539270876136
sg111
F-0.07213307854175227
sg310
F-0.6388689997510758
sg65
F-2.482819756810311
sg313
F-2.118193219743046
sg67
F-1.4589560180586887
sg315
F-3.5860983110732514
sg69
F-0.9986745464729729
sg70
F-2.3017821011763435
sg71
F-3.5226804065441146
sg72
F-2.5716200449896127
sg73
F-4.087550024517001
sg75
F-696.4047261119107
sg542
F0.02161192152654741
sg684
F2.278676379819826
ss(g369
g162
tp764
(dp765
g6
F736.2267436525192
sg372
F1.4826969708300082e-08
sg165
F37.60013804833585
sg373
F6.060941265647353
sg374
F3.32105075765708
sg167
F-0.2847578740885057
sg168
F2.9824236482896853
sg169
F-0.667841581406415
sg375
F0.8080796509575932
sg376
F1.6469642257803432
sg172
F0.5772037262207372
sg173
F0.9441508244730846
sg174
F-1.0743738576358293
sg175
F-1.4152892156012853
sg176
F-0.7119315835026099
sg177
F-2.5221841906590026
sg178
F-1.459076449406184
sg179
F-0.7266141487423579
sg180
F-1.586065259905659
sg181
F-1.0929977446152919
sg377
F2.9628454202355115
sg182
F-4418.276670262304
sg378
F1.0750317856076648
sg379
F2.001217449727804
sg380
F0.33996418700770625
sg381
F0.29867038165151094
sg382
F0.026930270615068117
sg383
F1.96187913890822
sg384
F0.007898211339062496
sg385
F0.11867216883212034
sg386
F4.89231108460915e-09
sg387
F0.005727832517331574
sg184
F-2.0033943890072305
sg42
F29.47064427931709
sg388
F0.5018276870751657
sg185
F-1.136620931471743
sg186
F-2.7213380184611022
sg187
F-0.5957179543019064
sg188
F-1.5711505662468774
sg189
F-0.6476489449584476
sg190
F2933.3058732176496
sg191
F-0.9897617067394898
sg192
F0.03933333862909342
sg193
F-0.4086634276703568
sg194
F-0.301797637631804
sg195
F-0.09955616883674606
sg196
F-0.23118835446370087
sg197
F-0.3459797023396599
sg259
F-0.03684296334796992
sg198
F-2.1634414148041543
sg60
F1098.0674780814625
sg389
F0.00328227141674361
sg390
F0.007633786196619807
sg391
F1.6042153781924828
sg392
F4.142976500530806
sg393
F0.3911409752278537
sg394
F6.828650266449364
sg395
F3.306792336548512
sg396
F3.4580381986582864
sg397
F0.8931012161249434
sg398
F1.6595056358063975
sg205
F-1.0068426571556564
sg399
F2.819427991954886
sg400
F3.593057725019145
sg401
F1.144204684290777
sg209
F-3853.856690978872
sg75
F906.89014869898
sg210
F-0.5106126251197327
ss(g2
g114
tp766
(dp767
g262
F-0.805744873556396
sg7
F0.02678213821235596
sg741
F80.18762063081631
sg12
F-2.6106164120424182
sg152
F-0.12755408281127018
sg8
F-1.9455568985221499
sg233
F1.0313351942706546
sg16
F-1.1249392055137855
sg17
F0.18955212719393852
sg232
F-1.5667815436346821
sg333
F-1.5959331572736994
sg249
F0.015545725604764363
sg87
F-0.5048620730766114
sg742
F1111.6952164901593
sg264
F-0.0015656861547256769
sg135
F2.2523872576681407
sg743
F1538.2911002965343
sg74
F4.518731415902183
sg630
F0.5760285355097253
sg757
F0.7277036797686284
sg758
F1.4293077211748522
sg96
F0.070993155509844
sg759
F1.3011830266811582
sg36
F0.14754344655196155
sg744
F0.6793144198449262
sg490
F-0.007108244804279014
sg42
F35.037535840539384
sg760
F0.6358965863766836
sg538
F-0.004305615601207752
sg271
F-0.14833084367646276
sg761
F-0.16162289774500335
sg272
F-0.09933952607510577
sg248
F-0.26063698931974977
sg745
F-1725.2210785313355
sg6
F258.4496914584461
sg230
F-0.6020362197045401
sg60
F335.94766467104307
sg110
F0.02678213821235596
sg111
F0.05356427642471192
sg150
F-1.5537859381345611
sg65
F-0.451739325580541
sg66
F-0.41759399081381926
sg154
F0.8412169017479235
sg68
F1.3350837980788715
sg156
F-0.6204550130908025
sg541
F2.3644252392320615
sg71
F2.9646942208546854
sg159
F1.904722939434691
sg160
F3.1754554599339153
sg75
F301.7113413064921
sg276
F-1.021386458308028
ss(g115
g114
tp768
(dp769
g6
F-455.17951163572127
sg118
F-2951.5284572242404
sg119
F-5.701796488687355
sg120
F0.3213809310141997
sg121
F-7.026201159914294
sg122
F-1.4726708002719642
sg123
F-3.484501876424318
sg124
F-1.3075730184783638
sg125
F-3.1561058713465417
sg126
F-3.2133154567859035
sg127
F1.2506035210576187
sg128
F0.8701776879674119
sg129
F1.2003737960727177
sg130
F1.923320455376624
sg131
F0.4466568433562301
sg132
F3580.0279599434784
sg133
F0.7641639169127908
sg134
F0.32495834374875704
sg135
F-0.3100477590840222
sg136
F1836.3470815267356
sg137
F0.014246249116807616
sg138
F1.7081428169175945
sg42
F-20.58982506920286
sg139
F-0.0809923145814807
sg140
F0.9951588927445796
sg141
F2.780406063888575
sg142
F3.0197115782035344
sg143
F1.8995918834476742
sg144
F3.416045275699524
sg145
F1.618357443660677
sg146
F-22.5461760980498
sg147
F0.6094167094708375
sg148
F0.3297295336995545
sg149
F2.6755356307510545
sg60
F-667.8062553877976
sg150
F-3.8341079779194858
sg151
F-3.475174243017831
sg152
F-1.1207923270831366
sg153
F-3.686951685805629
sg154
F-0.6016455719340904
sg155
F-2.2410517329491206
sg156
F-1.3904673900192113
sg157
F-0.5084057072902392
sg158
F-0.4523643813475187
sg159
F-1.1138458885775158
sg160
F-0.73590208610256
sg75
F-540.18285836413
sg161
F1.834384955804531
ss(g321
g78
tp770
(dp771
g81
F-0.47398613705476667
sg364
F0.009760628619757154
sg82
F-0.007374838229194783
sg325
F11.542495233864438
sg326
F0.012417864666066992
sg327
F1.98105643304797
sg328
F1.720679699522912
sg329
F2.4790041948615094
sg330
F-0.524659232534663
sg331
F-0.046746616537885054
sg332
F-2.3448629172389097
sg507
F-0.5160218097784336
sg85
F-2.1825513633262896
sg86
F-0.24480522985410746
sS'69'
p772
F-1.4922845975462282
sg335
F-370.2666451235678
sS'81'
p773
F-0.6882065788233485
sg90
F-0.006380559217571657
sS'80'
p774
F-0.00877049773480374
sS'84'
p775
F-0.2895471949688385
sg93
F-0.051044473740573255
sg337
F1.299306525473039
sg338
F-3251.874225114934
sg339
F4.6142547503847355
sg340
F0.6638679078823725
sg367
F0.48957612338148354
sg341
F1.0811359726083496
sg342
F0.0729257801229921
sg343
F0.43934554078923377
sg344
F0.15986126837091164
sg345
F0.25613998619160405
sg346
F0.007266104700440952
sg470
F-0.07636281965696257
sg99
F-0.6602344214449818
sg42
F9.65751695495904
sg100
F-0.005780517742867761
sg347
F1.005393512418221
sg101
F-0.04466391452300161
sg336
F0.011387400084439454
sg102
F-2.404915111819907
sg472
F-0.7799734744859818
sg104
F-1.1704924667095509
sS'74'
p776
F-1.3931601615782454
sS'73'
p777
F-0.29637793572432675
sg349
F1964.5092449880929
sg6
F382.3574380988365
sg108
F-2.883104596911939
sg109
F-0.8931317318386945
sg60
F596.0880939941317
sg368
F0.06057118986234754
sg351
F0.09560288660495983
sg352
F2.221398593618126
sg353
F1.9137273604420797
sg354
F3.356499122037632
sg355
F2.0031252146636747
sg356
F5.284540561785959
sg357
F1.2313420319751807
sg358
F1.0620813418580166
sg359
F2.7127401218077605
sg360
F1.4131316252555493
sg361
F1.5501483128767366
sg274
F-0.5259572288022223
sg75
F505.3496245195288
sS'72'
p778
F-2.4603942354505293
ss(g78
g211
tp779
(dp780
g6
F-182.62780855919192
sg404
F-143.63245066992735
sg214
F0.4502642843953333
sg99
F0.501672195800214
sS'62'
p781
F-3.840036773222332
sg405
F-2.211749595840524
sg216
F-1.3359433224716997
sg406
F2.181598067787287
sS'66'
p782
F0.4819216963837329
sg407
F-0.8132722503392318
sg86
F0.2279852082425249
sg408
F0.2035739434444604
sg409
F1332.744284143242
sg773
F0.3446150178076381
sS'86'
p783
F0.05700652928126864
sg91
F0.01982855704392385
sg411
F447.9394295136513
sg412
F-0.07981044091846497
sg413
F-1397.7064328798983
sS'46'
p784
F0.006303597628743128
sg95
F0.2661036356542502
sg722
F-0.2306841618087115
sg82
F0.004872793348812106
sg183
F0.004872793348812106
sg97
F0.004872793348812106
sg775
F0.09524101393495309
sg510
F0.017275416023863285
sg42
F13.746308313474339
sg672
F0.002453436548964254
sg418
F-0.092280822311975
sg419
F4.970403342153037
sg420
F-1.0551410383754698
sg421
F-1.5078377945537704
sg422
F0.8965595380180292
sg511
F0.03130574003978149
sg423
F3.3163574304764207
sg424
F-0.08890869173729844
sg425
F-1.8217486246859165
sg109
F1.4326831518061698
sg60
F-206.44726902468025
sg199
F0.9034589318597317
sg112
F-1.2130099226871576
sg674
F0.17819831129829997
sg724
F-0.10245040028609506
sg725
F-1.7003469359724137
sg225
F-3.583231139340024
sg203
F0.12744388481143165
sS'51'
p785
F0.0567323786586881
sg721
F-3.1051605351260627
sg227
F-0.018340629437339308
sg207
F0.38601633753505143
sg75
F-172.06630035632168
ss(g277
g115
tp786
(dp787
g280
F0.11580390191931537
sg6
F100.09728998481643
sg118
F3933.452699980953
sg300
F4.309378320615304e-09
sg283
F0.8975028956592391
sg120
F0.09093745692039329
sg284
F2.0411581871876883
sg122
F2.278408711283025
sg286
F2.006899863793725
sg124
F0.1551851083968663
sg125
F1.7904675654116047
sg126
F0.8556369036322644
sg127
F-0.6481145174987417
sg128
F0.34673359847223556
sg129
F-0.48030812017919056
sg130
F-0.31235089294968743
sg639
F-0.16539559624629604
sg132
F-3906.607395728688
sg133
F-0.18488694619034585
sg640
F-0.16298357594991272
sg293
F7.325943145045978e-08
sg136
F-4612.991876602796
sg295
F4.3093783206153415e-08
sg296
F1.2928134961845947e-08
sg297
F4.309378320615304e-09
sg298
F2.5856269923691894e-08
sg299
F4.3093783206153415e-08
sg320
F6.464067480922983e-08
sg138
F0.13071631876411252
sg42
F12.201543489419251
sg641
F0.02468528818417165
sg642
F0.02975423322438934
sg290
F-0.5063267945129301
sg141
F-1.8397977118290272
sg142
F-0.23765770234776165
sg143
F-2.017798475860912
sg144
F-2.1040244120041316
sg145
F-0.48062995268206754
sg146
F11.801685123310707
sg147
F1.836967579058687
sg148
F-0.919118732326996
sg643
F2.5163389447392066e-08
sg644
F2.5163389447392066e-08
sg645
F3.1454236809240082e-09
sg453
F1.887254208554403e-08
sg306
F1.5727118404620092e-08
sg149
F-0.9890475285968789
sg60
F208.86113846667484
sg309
F4.309378320615304e-09
sg310
F1.7070372424619547
sg311
F0.541355372913088
sg646
F0.5977675683900782
sg313
F0.9307220522176726
sg314
F1.0185910981058734e-08
sg315
F0.7560064217385332
sg316
F3.878440488553732e-08
sg317
F2.1546891603076708e-08
sg282
F1.3790010625968974e-07
sg318
F1.5473186653762568e-07
sg319
F1.5944699786276516e-07
sg75
F135.3708317734315
sg647
F4.2212741560542424e-07
sg161
F-1.3436571808938722
ss(g1
g321
tp788
(dp789
g51
F1.521220230712151
sg364
F-0.020230725917627507
sg325
F-30.63840694602294
sg326
F-0.03860775884575838
sg327
F-3.141043316182055
sg328
F-1.9640942940830057
sg329
F-3.8021028470649645
sg330
F-0.9312339254396638
sg331
F-1.5313330534134717
sg332
F0.3130719111380391
sg694
F0.10370596457557996
sg19
F1.0382566312423842
sg20
F0.6056406595111451
sg21
F0.8016025896497769
sg335
F820.9965641260338
sg23
F1.7247042276496418
sg24
F0.8942621199988903
sg22
F0.64925326926989
sg26
F1.1144359999335047
sg27
F0.45367468147252665
sg337
F-1.4132848962791194
sg338
F2735.5246177683966
sg339
F-4.544809259938106
sg340
F-1.0250253914600382
sg367
F-0.41676048859828124
sg341
F-2.165649672491539
sg342
F-0.07196617634523748
sg343
F-0.8652491940562496
sg344
F-0.1774479388987064
sg345
F-0.30746428370618634
sg346
F-0.03034608886221967
sg241
F0.012498893774165602
sg40
F1.071119912991082
sg695
F0.8566059071798523
sg42
F-22.837867883321714
sg239
F0.18699684922567272
sg347
F-1.1234145796055333
sg15
F0.21345401702869995
sg662
F0.017129716961375656
sg336
F-0.029265419540273632
sg45
F1.2328653458893675
sg46
F1.910511617034054
sg47
F1.2063990840506271
sg48
F2.596270611939461
sg615
F1.0724178654761236
sg349
F-2336.5400281947627
sg6
F-632.6693527751265
sg696
F1.9002139038771972
sg250
F0.11393129596581851
sg697
F0.13737836006517945
sg661
F0.10238879247656864
sg698
F0.06924594900580067
sg57
F2.4690663466019154
sg586
F0.01975240715702755
sg59
F1.5508775784689794
sg60
F-1001.6064046559081
sg368
F-0.07884618151333835
sg351
F-0.1416150530753256
sg352
F-3.3745223926014023
sg353
F-3.539709723634112
sg354
F-4.089695510646043
sg355
F-2.69921581647315
sg356
F-6.618059706923862
sg357
F-1.244009499095911
sg358
F-1.3940236590519548
sg359
F-4.022442852282541
sg360
F-1.7805706823544063
sg361
F-3.083967930766771
sg75
F-837.9764468156981
sg14
F0.5683805106762793
sg50
F2.130607590525245
ss(g162
g1
tp790
(dp791
g6
F-56.70118173281017
sg165
F-79.22858005187639
sS'50'
p792
F-0.043509533836978476
sg605
F-0.3155613530241072
sg167
F-0.7108744493009294
sg168
F-0.5016206359707573
sg169
F0.3443213315460744
sg607
F-0.2859823551694974
sS'65'
p793
F-1.1650166774715258
sg172
F-0.6179561538994965
sg173
F-0.7830634748729647
sg174
F-2.1220963070602643
sg175
F0.9144340493245915
sg176
F-0.0678218463683836
sg177
F1.56638799626187
sg178
F-0.7832276306404016
sg179
F-0.8479674669025279
sg180
F0.03905418523911001
sg181
F0.7213126329111522
sS'48'
p794
F-0.014724414936037157
sg182
F2165.7593713808606
sS'63'
p795
F-0.4408960003481577
sg53
F-0.02183145062898919
sS'44'
p796
F-0.0515354522761302
sg235
F-0.007362207468018579
sg236
F-0.029448829872074315
sg237
F-0.014724414936037157
sg238
F-0.02208662240405578
sg243
F-0.06625986721216727
sg240
F-0.08834648961622311
sg241
F-0.013074137087315977
sg242
F-0.22086622404055783
sg184
F1.179313139586339
sg42
F-16.588415122882555
sg614
F-0.02025800679618617
sg245
F-0.06625986721216727
sg247
F-0.06625986721216727
sg185
F1.1537251368272243
sg186
F1.950720963100157
sg187
F0.5542007034474373
sg188
F0.23841163992969147
sg189
F-0.36014451197399544
sg190
F-758.0924544215706
sg191
F0.7195997540729492
sg192
F-1.710107992714677
sg193
F0.12966057214570287
sg194
F0.1370063608251969
sg195
F-0.046189028155965456
sg196
F0.02706941425561249
sg197
F-1.3884287889377926
sg58
F-0.012802933381387821
sg198
F1.5960402808264573
sg60
F-148.48979603839197
sg251
F-0.11043311202027892
sg252
F-0.0736220746801858
sg616
F-0.28402721079044707
sS'58'
p797
F-0.16058182912337224
sg606
F-0.16849634576470462
sg617
F-0.17344105002900678
sg618
F-0.10985004527213849
sg619
F-0.23786221920464093
sg620
F-0.11888221638975612
sS'51'
p798
F-0.0036512803298355294
sg205
F0.5689628694703486
sS'53'
p799
F-0.04146336885357153
sS'52'
p800
F-0.1626039278283281
sS'46'
p801
F-0.007362207468018579
sg209
F98.48654628360227
sg75
F-117.30589001374722
sg246
F-0.014724414936037157
sg256
F-0.11779531948829726
sg210
F-0.7241215725904048
ss(g211
g1
tp802
(dp803
g548
F-0.21102525633930688
sg6
F463.10113138172943
sg10
F-22.78069822250919
sg549
F5.72756932256742
sg214
F1.2702228912977143
sg550
F-0.7153739886258305
sg14
F-0.4132865646356867
sg15
F-0.25912695716351003
sg216
F2.817025447395087
sg406
F-0.6180985058764317
sg551
F0.39880064199469323
sg19
F2.279902764640964
sg20
F-3.57343154727072
sg21
F-0.6186506944583002
sg22
F-0.7069954468098892
sg23
F-1.4337754260127282
sg24
F-2.357358491835555
sg25
F-559.6795711479822
sg26
F-1.8066790288449
sg27
F-0.30494665589670694
sg552
F-0.031007841080832075
sg29
F2294.594848225377
sg405
F3.6347089887893893
sg53
F-0.013569560887059027
sg553
F-0.05351554479749752
sg218
F0.34827867315264005
sg34
F-0.03058031131285569
sg11
F-0.015290155656427846
sg554
F-0.0229352334846418
sg43
F-1.3408301193243257
sg38
F-0.0917409339385672
sg241
F-0.011355228237602304
sg39
F-0.22935233484641807
sg555
F-0.0688057004539254
sg40
F-0.36591913381880214
sg41
F-508.89478055519663
sg42
F10.925349792017915
sg556
F-0.0688057004539254
sg44
F-0.0688057004539254
sg45
F0.27106173012373275
sg46
F-0.6565066300387019
sg47
F2.143853017731639
sg48
F-1.0707868262295819
sg557
F-0.5563462431514289
sg50
F0.17354482677073332
sg51
F-0.6362384909984927
sg425
F3.5084526406478482
sg61
F-0.1306211850327259
sg54
F-0.10093330251079703
sg55
F-0.06895497076002348
sg56
F-0.0670599188883708
sg57
F-0.9098990632806151
sg58
F-0.008999113092986222
sg59
F-1.9128121674517693
sg60
F557.0813865974858
sg62
F-0.11467616742320903
sg63
F-0.07645077828213927
sg558
F-0.19486258299721582
sg221
F1.318170145771865
sg559
F-0.05646282451020674
sg560
F0.4102242628029983
sg561
F1.452907358500434
sg225
F5.552610570863163
sg562
F-0.0010635911758214147
sg563
F-0.03536592190304903
sg564
F5.425590651575874
sg227
F-0.057994377664466565
sg565
F-0.10991672288442528
sg566
F-0.015503920540416037
sg75
F494.8860099842733
sg76
F-0.015290155656427846
sg77
F-0.12232124525142277
ss(g2
g162
tp804
(dp805
g5
F1.095223815247248
sg6
F870.3225180773331
sg7
F0.023519664352286165
sg165
F145.11158569516942
sg71
F2.9144195032360787
sg12
F2.784221203979887
sg167
F0.4532054393358065
sg168
F5.728541430061655
sg169
F-0.9155220761002469
sg16
F3.2243519081164482
sg17
F3.347607435106545
sg172
F1.3013728688983988
sg173
F2.4196206676556082
sg174
F-2.422403082899945
sg175
F-1.3059288501216366
sg176
F-0.5708248998425849
sg177
F-3.0693394297335006
sg178
F-2.7808469658678576
sg179
F-0.4828793765748471
sg180
F-2.068646543657158
sg181
F-0.7001608238414441
sg28
F2.1178146567179628
sg182
F693.8433019240251
sg30
F2.8957640537989193
sg31
F0.5582719123620171
sg32
F0.2699934855426951
sg33
F1.5313125911152539
sg96
F0.06242208033030729
sg35
F0.8676441757850712
sg36
F0.12259031022032617
sg37
F0.45658143394413814
sg184
F-1.5309390545297465
sg42
F68.22170501703428
sg185
F-2.0751206508354163
sg186
F-2.2561972236658727
sg187
F-2.068509766714759
sg188
F-1.6984719118554794
sg189
F-0.5991045260446369
sg190
F345.2405143901349
sg191
F-0.8105171970394716
sg192
F0.17169123568208844
sg193
F-0.10955460652968152
sg194
F-0.1349791732273503
sg195
F-0.019355686183296042
sg196
F-0.02710599159296341
sg197
F0.8034894002641617
sg198
F-4.022475783232565
sg60
F1139.5641343458637
sg110
F0.023519664352286165
sg111
F0.04703932870457233
sg64
F1.6583526233154775
sg65
F2.8403492955825014
sg13
F1.1891366565614905
sg66
F2.2966533861546448
sg67
F1.2657045177773805
sg68
F3.6228171010829993
sg69
F0.8283793452755827
sg70
F1.7675990975584932
sg205
F-0.7916582218854755
sg72
F4.449415272354007
sg73
F3.7135518105839216
sg74
F5.891382039565618
sg209
F-2315.1480206625183
sg75
F987.3829237096028
sg210
F-1.0900302462530165
ss(g115
g321
tp806
(dp807
g6
F-704.8399407219707
sg364
F-3.3430294261116564e-08
sg118
F-2887.649647268015
sg365
F-6.09151891375738e-07
sg327
F-4.531570865034818
sg120
F0.8009974260049704
sg329
F-4.547163978447736
sg122
F-0.7078290498101915
sg331
F-2.419536419099785
sg124
F-0.33718854591140435
sg125
F-0.3065608551664654
sg126
F0.9496101864148813
sg127
F0.8260913995206447
sg128
F1.1190642713497199
sg129
F1.7438385502711666
sg130
F1.8724837791531195
sg595
F0.5315173894554842
sg132
F18.648054217691143
sg133
F0.4025834938353943
sg134
F0.6622813956738824
sg337
F-0.9532462584689146
sg136
F6299.476986898955
sg339
F-6.839864528486719
sg596
F-0.9380974264336499
sg597
F-0.7578694857947347
sg341
F-1.8081919299265563
sg598
F-0.007387804806798684
sg343
F-0.23695957587299799
sg599
F-1.396216197295495e-06
sg345
F-0.004750062512368607
sg346
F-5.014544139167443e-08
sg138
F2.011987708477985
sg42
F-31.823251394873687
sg600
F0.006383144432222807
sg347
F-1.4770527466603216
sg140
F1.1022937526780527
sg484
F-5.967885957245128e-08
sg141
F2.244021599640143
sg142
F2.5666404221521204
sg143
F3.0682811874635094
sg144
F3.3893393626490833
sg145
F2.1413262416691627
sg146
F-25.490860031659896
sg147
F1.4407685928429674
sg148
F1.4481120910642074
sg149
F2.505611993255236
sg60
F-1075.5301261955121
sg601
F-7.219485949492766e-07
sg351
F-0.014577288738075761
sg352
F-4.360955240265564
sg353
F-5.227024793836731
sg328
F-2.5188548322691697
sg354
F-4.167931927125089
sg355
F-2.6296201965650035
sg356
F-6.953446370636944
sg357
F-1.8070095776088924
sg358
F-1.6700415559954593
sg359
F-2.9784551328957862
sg360
F-1.6863091539211685
sg361
F-2.5048598767900185
sg75
F-931.7017437159211
sg161
F1.9787345123953406
ss(g1
g277
tp808
(dp809
g521
F0.3467123212149442
sg6
F-67.34158284228349
sg281
F-10.683752620119437
sg282
F-0.1129799881746575
sg283
F0.294012981357388
sg550
F-0.522072269226434
sg284
F-0.49412532213637517
sg285
F-1.1637473622924048
sg286
F-1.1558262344885637
sg585
F0.28989904139774997
sg288
F-0.7516094773914922
sg289
F0.12602931443057963
sg20
F0.9280456273019217
sg290
F0.22909579079983183
sg291
F2396.9001655642505
sg292
F-0.032459478032330756
sg24
F1.0595081614011232
sg22
F-0.29038824757284204
sg26
F1.15679024793887
sg27
F0.10177569650366197
sg586
F0.00850639041027878
sg293
F0.030499738316650746
sg294
F873.3063477774618
sg295
F0.035325365428996024
sg296
F-0.007091215383941722
sg297
F0.025641320397220838
sg298
F-0.019817175059761393
sg587
F0.011498206798303453
sg299
F-0.03190905228247333
sg588
F0.010456759760134195
sg320
F-0.055605264531149314
sg240
F0.02716220174928398
sg241
F0.004572945187604929
sg300
F0.06218860610405789
sg60
F-95.16181280932227
sg42
F-4.470745123232919
sg239
F0.6048925655615228
sg15
F0.28249238518285297
sg247
F0.02037165131196296
sg45
F-0.20592089451766152
sg301
F-0.8099080632198918
sg47
F-0.6650326889922188
sg302
F0.5315809600724808
sg557
F-0.6317411798291197
sg303
F-2699.6526795747013
sg304
F-1.4230913086003087
sg589
F0.798984896104421
sg250
F0.14445816160639532
sg590
F0.08154240035107344
sg530
F0.041590989623401554
sg591
F0.033306946095252324
sg305
F0.1585965192066823
sg592
F0.0016080027185265521
sg307
F0.1710781485815063
sg308
F-0.7953089851235882
sg309
F0.028235853917452897
sg252
F0.02263516812440329
sg310
F-0.42610038523788957
sg311
F0.06754271099085368
sg312
F-0.25578176482055454
sg313
F-0.29907660001217895
sg314
F0.14696761242682588
sg315
F-0.3653289460612125
sg316
F-0.03283867212995343
sg317
F0.18760049941949886
sg14
F0.31922951723146054
sg318
F0.13427812350832602
sg319
F-0.053079201728156764
sg75
F-57.90105522225928
sg246
F0.004527033624880668
sg237
F0.004527033624880668
sg256
F0.03621626899904534
sg50
F0.13539135451959344
ss(g211
g78
tp810
(dp811
g6
F182.62780855919192
sg404
F143.63245066992735
sg214
F-0.4502642843953333
sg99
F-0.501672195800214
sg781
F3.840036773222332
sg405
F2.211749595840524
sg216
F1.3359433224716997
sg406
F-2.181598067787287
sg782
F-0.4819216963837329
sg407
F0.8132722503392318
sg86
F-0.2279852082425249
sg408
F-0.2035739434444604
sg409
F-1332.744284143242
sg773
F-0.3446150178076381
sg783
F-0.05700652928126864
sg91
F-0.01982855704392385
sg411
F-447.9394295136513
sg412
F0.07981044091846497
sg413
F1397.7064328798983
sg784
F-0.006303597628743128
sg95
F-0.2661036356542502
sg722
F0.2306841618087115
sg82
F-0.004872793348812106
sg183
F-0.004872793348812106
sg97
F-0.004872793348812106
sg775
F-0.09524101393495309
sg510
F-0.017275416023863285
sg42
F-13.746308313474339
sg672
F-0.002453436548964254
sg418
F0.092280822311975
sg419
F-4.970403342153037
sg420
F1.0551410383754698
sg421
F1.5078377945537704
sg422
F-0.8965595380180292
sg511
F-0.03130574003978149
sg423
F-3.3163574304764207
sg424
F0.08890869173729844
sg425
F1.8217486246859165
sg109
F-1.4326831518061698
sg60
F206.44726902468025
sg199
F-0.9034589318597317
sg112
F1.2130099226871576
sg674
F-0.17819831129829997
sg724
F0.10245040028609506
sg725
F1.7003469359724137
sg225
F3.583231139340024
sg203
F-0.12744388481143165
sg785
F-0.0567323786586881
sg721
F3.1051605351260627
sg227
F0.018340629437339308
sg207
F-0.38601633753505143
sg75
F172.06630035632168
ss(g78
g321
tp812
(dp813
g81
F0.47398613705476667
sg364
F-0.009760628619757154
sg82
F0.007374838229194783
sg325
F-11.542495233864438
sg326
F-0.012417864666066992
sg327
F-1.98105643304797
sg328
F-1.720679699522912
sg329
F-2.4790041948615094
sg330
F0.524659232534663
sg331
F0.046746616537885054
sg332
F2.3448629172389097
sg507
F0.5160218097784336
sg85
F2.1825513633262896
sg86
F0.24480522985410746
sg772
F1.4922845975462282
sg335
F370.2666451235678
sg773
F0.6882065788233485
sg90
F0.006380559217571657
sg774
F0.00877049773480374
sg775
F0.2895471949688385
sg93
F0.051044473740573255
sg337
F-1.299306525473039
sg338
F3251.874225114934
sg339
F-4.6142547503847355
sg340
F-0.6638679078823725
sg367
F-0.48957612338148354
sg341
F-1.0811359726083496
sg342
F-0.0729257801229921
sg343
F-0.43934554078923377
sg344
F-0.15986126837091164
sg345
F-0.25613998619160405
sg346
F-0.007266104700440952
sg470
F0.07636281965696257
sg99
F0.6602344214449818
sg42
F-9.65751695495904
sg100
F0.005780517742867761
sg347
F-1.005393512418221
sg101
F0.04466391452300161
sg336
F-0.011387400084439454
sg102
F2.404915111819907
sg472
F0.7799734744859818
sg104
F1.1704924667095509
sg776
F1.3931601615782454
sg777
F0.29637793572432675
sg349
F-1964.5092449880929
sg6
F-382.3574380988365
sg108
F2.883104596911939
sg109
F0.8931317318386945
sg60
F-596.0880939941317
sg368
F-0.06057118986234754
sg351
F-0.09560288660495983
sg352
F-2.221398593618126
sg353
F-1.9137273604420797
sg354
F-3.356499122037632
sg355
F-2.0031252146636747
sg356
F-5.284540561785959
sg357
F-1.2313420319751807
sg358
F-1.0620813418580166
sg359
F-2.7127401218077605
sg360
F-1.4131316252555493
sg361
F-1.5501483128767366
sg274
F0.5259572288022223
sg75
F-505.3496245195288
sg778
F2.4603942354505293
ss(g369
g2
tp814
(dp815
g461
F0.6215243115253423
sg372
F-0.037796052279515255
sg741
F-63.46905498199587
sg462
F0.0032278341496287653
sg12
F-0.8536553849665133
sg393
F-1.1052191085226886
sg8
F-0.9211895296884967
sg378
F-1.0730389175163986
sg16
F-0.3428175275011158
sg17
F0.1101193755536508
sg464
F0.6833794304699234
sg333
F0.6385425856959399
sg432
F-0.15964505363351525
sg87
F0.886802401716808
sg742
F-44.266954454242516
sg377
F0.2268694323152701
sg743
F-2914.633125641135
sg401
F-2.1445236298467587
sg545
F1.214698407166358
sg466
F-0.2409575424996595
sg381
F-1.1044572328487228
sg382
F-0.06502749191217934
sg467
F0.9188778719471214
sg468
F-0.1571766742259955
sg744
F-0.5024286892423443
sg577
F0.0072176171343104195
sg42
F-22.77524483246523
sg471
F-0.7667074803594344
sg578
F0.002405872378103472
sg579
F0.04228040077710063
sg580
F0.09232043504113259
sg473
F0.29828132222492093
sg581
F0.09136354873283589
sg745
F927.4668480816416
sg6
F-57.93045767950576
sg449
F0.3696578676964564
sg582
F0.0072176171343104195
sg60
F-62.47874700437781
sg389
F-0.0281147592925235
sg475
F-0.06493589848945039
sg391
F-0.3913578311447092
sg65
F-0.6228851317620024
sg66
F2.9062149561508583
sg395
F1.4445205478060734
sg68
F-1.0168467062758548
sg397
F-0.9939718131593513
sg398
F-0.5984218514939849
sg71
F2.157277912942366
sg399
F-1.2973362674069304
sg400
F-0.5808877223642389
sg75
F-52.03167861657962
sg458
F0.5842087418323353
ss(g2
g115
tp816
(dp817
g5
F1.0319427890708612
sg6
F688.0968445929467
sg7
F0.026021263435082587
sg118
F650.8619104477401
sg12
F3.471793061114876
sg120
F-0.2240077894603468
sg8
F4.701965330698842
sg122
F3.309356780809667
sg16
F1.5367808136944587
sg124
F3.4244823697714826
sg125
F0.9431456043764914
sg126
F1.0755603348078553
sg127
F-1.588056661662673
sg128
F-0.3131573212549463
sg129
F-1.2039886057041085
sg130
F-1.4174620155541753
sg131
F-0.4352373903615447
sg132
F-1939.651259653651
sg133
F-0.570275835767954
sg503
F-0.16103188316230532
sg28
F1.9448472893666886
sg136
F-458.27458721614414
sg74
F6.381358722008688
sg31
F0.5198057745215903
sg32
F0.38254264837926794
sg33
F0.9130592224067569
sg96
F0.069003746125541
sg35
F0.8140071044477735
sg36
F0.13404657400302789
sg37
F0.479227497926847
sg138
F-1.9071084167672194
sg42
F57.00746430328506
sg137
F-0.0033523263120549852
sg140
F-0.8295992717873122
sg141
F-2.874423895408636
sg142
F-2.0928060130100383
sg143
F-3.39397092905063
sg144
F-4.133875008796236
sg145
F-1.4079006329282095
sg146
F94.9364268679494
sg147
F-1.2321520506307144
sg148
F-1.4524870586269747
sg149
F-3.20524585582818
sg60
F928.8889620312573
sg110
F0.026021263435082587
sg111
F0.052042526870165175
sg64
F1.3535504009618609
sg65
F3.480006445152845
sg13
F1.117974125209765
sg66
F2.630440260761262
sg67
F1.1164842166161202
sg68
F3.9649126459137523
sg69
F0.6895451194124375
sg70
F1.7669355097599573
sg71
F2.8089516873582014
sg72
F3.4829423847178203
sg73
F2.6945680367252924
sg75
F798.1270474668146
sg161
F-1.940318940759783
ss(g114
g369
tp818
(dp819
g461
F0.21030748652737835
sg372
F-0.008987957377649342
sg728
F-13.986798740073517
sg431
F-0.05207435764294497
sg374
F1.1091224163134314
sg393
F0.47285622354749307
sg463
F0.9632293258726605
sg378
F0.43935139490941755
sg123
F1.2440430295530474
sg376
F0.8779794086139479
sg232
F0.8315931918030077
sg481
F1.3372791371513664
sg432
F0.5388105593556308
sg465
F0.8094701172624311
sg729
F-358.96366992558666
sg410
F0.1227638628494272
sg264
F0.002716041139214401
sg415
F0.008339417999218696
sg377
F-2.038299278914716
sg730
F2289.0162284916814
sg401
F-1.2263758308340287
sg731
F-1.9190071138044116
sg732
F-0.3680288270265287
sg381
F-1.0479604925222976
sg733
F-0.21442321633212683
sg440
F-1.3355068456433248
sg734
F-0.2978470501213461
sg442
F-0.4047056260145162
sg386
F-0.0006395999922993112
sg268
F0.040951686056050055
sg42
F-12.220754472799815
sg735
F-0.7109353551850707
sg414
F0.06671534399374957
sg538
F0.32122093387818496
sg271
F0.1695418465528999
sg580
F0.28764057126202314
sg473
F0.4386340139835824
sg248
F0.22530094559362704
sg736
F-64.86007980578862
sg6
F-216.01746060859142
sg449
F1.1055725384348336
sg582
F0.25998041620146733
sg60
F-377.79361028988325
sg389
F-0.0878234010382036
sg714
F-0.2543872294412587
sg150
F0.7763057597013163
sg392
F-0.5121799463658329
sg394
F-2.170663688127391
sg395
F-1.9242398351655208
sg396
F-0.9563655503695244
sg397
F0.4811535771193147
sg398
F-1.142738891259667
sg373
F-3.6530296537665223
sg399
F-1.8031703983227536
sg400
F-2.5823219697459185
sg75
F-312.4454579218894
sg458
F0.607839954463435
ss(g321
g162
tp820
(dp821
g191
F-1.0876501833313392
sg364
F5.504469514625681e-09
sg325
F46.99731132873006
sg365
F5.854440109123443e-08
sg327
F4.826813269137341
sg174
F-1.4937120163846527
sg329
F4.7730443977985635
sg330
F1.1915486111973816
sg331
F2.14761528829991
sg332
F0.7278863760220871
sg172
F0.23233725801515404
sg173
F-0.18375887426909507
sg167
F-0.37543616702288307
sg175
F-1.686596970933156
sg335
F-1418.1232576769853
sg177
F-3.0520157533928205
sg178
F-2.4021763137653545
sg176
F-0.6407298171771364
sg180
F-1.892916849218955
sg181
F-1.0145342114891118
sg337
F1.5930790800391632
sg338
F-5802.336802373441
sg339
F6.695970378905921
sg366
F0.8951758973037416
sg367
F0.6638392654051553
sg341
F2.022010804828857
sg342
F0.03496796308378858
sg343
F0.360140059048715
sg344
F0.0776838086932312
sg179
F-0.7340559369309028
sg346
F8.256704271938478e-09
sg184
F-1.692863971193331
sg42
F35.124367797130226
sg347
F1.4042508678805474
sg169
F-0.46236234984329583
sg336
F9.351401826396752e-09
sg185
F-1.839449943917649
sg186
F-2.5546217404121565
sg187
F-0.5328441644189691
sg188
F-1.739917052835723
sg189
F-0.5308074983874075
sg349
F3448.9585856084514
sg6
F828.6904290038572
sg192
F-0.30489910053467273
sg193
F-0.41648807880808636
sg194
F-0.36888101110120264
sg195
F-0.10373023787420158
sg196
F-0.0683379773684947
sg197
F-1.2109854578193928
sg259
F-0.06451972069607743
sg198
F-2.635122180432794
sg60
F1286.4839940801846
sg368
F0.038308277768238586
sg351
F0.06605996052883162
sg352
F3.4972466309395465
sg353
F5.792612370597055
sg328
F2.592075710883212
sg354
F3.958276936495742
sg355
F2.0244729532089014
sg356
F6.9541629279675865
sg357
F1.570068848224861
sg358
F1.996499506554154
sg359
F3.7884033717303187
sg360
F2.6376191342462354
sg361
F2.8677063756298917
sg345
F0.25724753556785324
sg75
F1090.4981923047346
sg205
F-1.1260397191545384
sg210
F-1.2116264446188163
ss(g115
g78
tp822
(dp823
g6
F-148.95028604828389
sg118
F37.746056216331134
sg669
F-1.6660591850090913
sg120
F0.1155091229877161
sg622
F-0.4839216625630575
sg122
F-1.9386475868166726
sg666
F-1.693606224871923
sg124
F-1.7192206811551427
sg125
F-0.3178447097861261
sg126
F-1.8279921580072886
sg127
F1.0825998663641556
sg128
F0.7666751633309411
sg129
F0.8511885961099407
sg130
F0.6153971094543398
sg670
F0.25029024730807614
sg132
F-1232.7092939179686
sg133
F0.24459418255352344
sg671
F0.38294718107237075
sg136
F3217.1857220152674
sg208
F-0.15343802790642522
sg95
F-0.2158912283149028
sg266
F-0.33752518839219975
sg82
F-0.004105283734004644
sg183
F-0.004105283734004644
sg137
F0.016358918456215323
sg97
F-0.004105283734004644
sg138
F1.741681120319176
sg42
F-33.12365237009573
sg672
F-0.0027002797776568845
sg673
F0.7993860720763989
sg141
F-2.228831193045151
sg142
F1.5073813586766975
sg143
F1.4417385328037664
sg144
F2.220074998026009
sg145
F1.0433849089734164
sg146
F-449.8481905190202
sg147
F0.8997228343465051
sg148
F-1.7731188558707733
sg149
F0.4956379237505481
sg60
F-257.92480386716215
sg199
F-0.7151847466735453
sg112
F-1.5105429291790968
sg674
F-0.06358425351382278
sg201
F-0.430497763345774
sg675
F-0.013501398888284454
sg202
F-0.21906047300622386
sg203
F-0.104958531467037
sg204
F-0.24211802725691595
sg676
F-0.021602238221255076
sg206
F-0.04347450696232327
sg207
F-0.6668532814330296
sg274
F-0.33752518839219975
sg75
F-231.58837676987957
sg275
F-0.000743179470726595
sg161
F-2.3188428406229726
ss(g211
g369
tp824
(dp825
g6
F-255.49580028729017
sg707
F-4.855590429230844e-08
sg404
F-2151.968708284587
sg708
F-0.016724249227719465
sg214
F-0.798938804448396
sg393
F-0.15459145868001528
sg463
F0.42506070907279514
sg405
F2.1809601577892486
sg216
F1.9034472082109917
sg406
F-0.917244417700148
sg464
F-0.17234129679289514
sg407
F0.9207502215293276
sg432
F-0.08034148424475132
sg408
F-0.440309456185947
sg409
F1207.3760888189217
sg411
F-7.13529200946967
sg377
F-2.336562000985582
sg413
F4460.702851176566
sg401
F-0.6355499202101537
sg709
F-1.8563411696555387
sg380
F-0.1526404938559653
sg381
F0.11140404488358012
sg382
F-0.013774725045603071
sg710
F-1.8213541222869167
sg711
F-0.0044171377160542305
sg712
F-5.817601597878538e-07
sg386
F-8.786904644953194e-09
sg510
F0.22747299285511036
sg42
F-11.371273820342775
sg713
F-0.24525004267691106
sg419
F1.1263296084255816
sg420
F1.4076982107903282
sg421
F2.383908633938647
sg422
F0.5141755310428072
sg511
F-0.007988112858034595
sg423
F0.9069882128606169
sg424
F-0.2884765788243956
sg425
F3.927715678260043
sg426
F0.39136964001504626
sg60
F-411.2563680686865
sg389
F-2.6920281656136616e-07
sg714
F-0.004416944291769061
sg391
F-1.5030493068562552
sg392
F-0.82079836872077
sg394
F-6.358700689182753
sg395
F-2.242153084155643
sg225
F1.6151297056417104
sg397
F-0.5388779980278512
sg398
F-1.239298804682919
sg373
F-1.1488787020672613
sg227
F-2.33922936038375
sg400
F-3.7695747859706183
sg75
F-340.1346145689488
ss(g78
g277
tp826
(dp827
g203
F0.03423860070716593
sg6
F136.59518408023214
sg281
F9.450429779699475
sg300
F-3.597709876660481e-13
sg283
F1.2631764129964855
sg312
F-0.3158045472317286
sg284
F0.18127382454963717
sg285
F0.37651810915480155
sg286
F0.24694500534463676
sS'65'
p828
F2.3740250472912052
sg288
F-0.5425558280340156
sg289
F1.142189386252086
sg86
F-0.37152653963487003
sg290
F-0.09495293330721952
sg291
F2703.5881370257994
sg292
F-0.1336463625047206
sg433
F-0.23654311257414995
sg523
F-0.6287770718003713
sg775
F-0.05406412869293214
sg524
F0.002729978239446753
sg293
F-6.116106790322856e-12
sg294
F2551.5112188898547
sg295
F0.2337128754502646
sg296
F0.21839080753917559
sg297
F-3.597709876660481e-13
sg298
F0.7475480889074592
sg82
F0.0055604107382479645
sg299
F-3.5977098766604834e-12
sg183
F0.0055604107382479645
sg320
F-5.39656481499069e-12
sg97
F0.0055604107382479645
sg60
F174.05659235258213
sg99
F-0.44236114671367766
sg42
F10.19664653574929
sg526
F-0.07478280035368069
sS'89'
p829
F-0.048043321461576353
sg102
F1.742042831088389
sg301
F-1.3692855241447737
sg104
F-0.18382679191137236
sg302
F-0.7811762931521642
sg448
F-1.0815705706634178
sg303
F-3989.430916631606
sg304
F-2.015496730375995
sg108
F1.5835947162086121
sS'91'
p830
F-0.012343850870756767
sS'90'
p831
F-0.0030859627176891917
sg452
F-0.0030859627176891917
sg305
F-0.9293552281810283
sg307
F0.00848341998760477
sg308
F-1.238718380222068
sg309
F-3.597709876660481e-13
sg310
F-0.28617363486921205
sg112
F1.7774284128616666
sg313
F0.175484659992833
sg314
F0.014026287546373509
sg315
F-0.07768156753129188
sg316
F0.002805257506222055
sg317
F0.45282900587157016
sg282
F0.022442060064167272
sg318
F0.22016891441036576
sg319
F1.0857367601685755
sg274
F0.7475480889096179
sg75
F182.49084607173546
sg531
F-0.027968572504135245
sg778
F1.3968409053938882
ss(g321
g211
tp832
(dp833
g424
F-0.29589963763617183
sg364
F3.596330190702319e-08
sg325
F17.511729650018264
sg506
F1.4398827284705297e-07
sg327
F1.0666934860527253
sg328
F2.1524409041798576
sg329
F-1.0119443519632894
sg330
F-1.3373656358698331
sg331
F-1.2469929091690337
sg332
F0.24907523785318628
sg507
F-0.11990533524544884
sg407
F-2.2779046836830323
sg508
F0.011624413896138911
sg408
F-0.9513212836435835
sg335
F1300.0226625798316
sg336
F4.1957185558193725e-08
sg337
F1.2225761384018432
sg338
F-4580.291626968523
sg339
F7.077720112765306
sg340
F1.2713010663877324
sg509
F0.6708151317164952
sg341
F1.4539318513017008
sg342
F0.06860204719418261
sg343
F0.4058753622211401
sg344
F0.08630527914303687
sg345
F0.14652607555769828
sg346
F5.39449528605343e-08
sg510
F-2.3020636949790415e-06
sg42
F13.187580631663264
sg347
F1.2385500267149292
sg419
F-0.9351157380539137
sg420
F-1.2820447914668658
sg421
F-1.668707116430296
sg422
F-0.7478124654237062
sg511
F-0.011595382672840979
sg349
F1175.6253843794793
sg6
F294.35830114729663
sg425
F-2.7527123458358362
sg426
F-0.33419625651966717
sg60
F482.06829764641697
sg512
F0.04737787111031137
sg351
F0.09800285073145767
sg352
F3.1544160352674195
sg353
F3.8964125089519728
sg354
F2.4984799661308563
sg355
F0.3570072180134043
sg356
F-1.1210048532589743
sg357
F1.6978644903941786
sg358
F1.8792453600689147
sg359
F-2.3743275055406086
sg360
F2.2593781225140055
sg361
F2.6128348311491503
sg75
F428.1864391894293
sg423
F-2.9029167117141443
ss(g115
g369
tp834
(dp835
g6
F-631.2037154665896
sg752
F-8.58375459257065e-09
sg118
F-4076.4717335258138
sg387
F-2.0819861074547707e-07
sg374
F-2.6211631646058806
sg120
F0.871310375210575
sg463
F-2.750795063141608
sg122
F-0.9818610074032929
sg375
F-0.8631334357713517
sg124
F-0.8386148623881052
sg125
F-0.5886533143347918
sg126
F-0.525201102953875
sg127
F0.7938410988582483
sg128
F1.2788203642177496
sg129
F0.85464902452437
sg130
F2.0223005554034468
sg753
F0.39171142653718977
sg132
F2615.827903235384
sg133
F0.4001300692178369
sg754
F0.2950925384531579
sg377
F-2.757814827201553
sg136
F4779.707718652611
sg401
F-0.8600333712159668
sg379
F-2.0485288785936784
sg466
F-0.14203269645963487
sg381
F-0.1339124418550039
sg382
F-0.01047576843236822
sg383
F-2.039566969060087
sg384
F-0.01047580535617253
sg385
F-1.2462149083094155e-06
sg138
F2.2201944847751913
sg42
F-30.843235021863023
sg600
F0.014022458265784557
sg388
F-0.1886617740404999
sg140
F0.5943270196580385
sg141
F2.242068325265746
sg142
F2.727563188037248
sg143
F1.7381171062901988
sg144
F3.0314792510031987
sg145
F2.131563664794604
sg146
F-40.47178640129967
sg147
F0.825401251195424
sg148
F1.4177847034871185
sg149
F2.0535638563013854
sg60
F-950.3783856764272
sg389
F-5.307137782860652e-08
sg390
F-0.010475661976736326
sg391
F-1.7848012276560723
sg392
F-3.7674539864932544
sg393
F-0.38703222479148397
sg394
F-7.361413369271481
sg395
F-3.7646915305453774
sg396
F-3.5677802530112483
sg397
F-0.7073826048405343
sg398
F-1.6523270679268367
sg373
F-6.732419141175579
sg399
F-2.6584764160729786
sg400
F-3.80984113788743
sg75
F-782.3290219722461
sg161
F1.9238000016259142
ss(g115
g211
tp836
(dp837
g6
F-425.6284348896115
sg118
F405.9843094050996
sg214
F-1.9158724947428833
sg120
F1.0105902322303433
sg215
F-7.356045617023327
sg122
F-3.840530182749836
sg216
F-2.9657141570859666
sg124
F-0.19910458065977582
sg125
F-0.4682894849940802
sg126
F-1.6338218058828653
sg127
F2.9371322994229954
sg128
F1.277548807263584
sg129
F1.1127461136576893
sg130
F1.0614252307239849
sg131
F0.4507238154810255
sg132
F53.40150740183954
sg133
F0.4437613527688698
sg217
F0.031991402428715836
sg136
F-325.26257342422383
sg218
F-0.18664237197765715
sg137
F0.014517321173400223
sg138
F1.4835208182482171
sg42
F-8.441905689960446
sg219
F0.4278649981896324
sg141
F3.5429628907307555
sg142
F0.6053780030155702
sg143
F-0.034376780540254684
sg144
F4.000085973419152
sg145
F1.420346437112868
sg146
F10.979834907210966
sg147
F0.8069867373149834
sg148
F-5.495302240202953
sg149
F2.615984256415057
sg60
F-531.4957083011832
sg220
F-0.01815978319979099
sg221
F-4.065346551972484
sg222
F-0.00955127769950696
sg223
F-0.40722054719227135
sg224
F-0.7150554204225271
sg225
F-3.465991631592307
sg226
F-5.3745403976707395
sg227
F-0.024015725974238837
sg75
F-478.7593174971895
sg161
F0.6030688930940955
ss(g1
g162
tp838
(dp839
g6
F56.70118173281017
sg165
F79.22858005187639
sg792
F0.043509533836978476
sg605
F0.3155613530241072
sg167
F0.7108744493009294
sg168
F0.5016206359707573
sg169
F-0.3443213315460744
sg607
F0.2859823551694974
sg793
F1.1650166774715258
sg172
F0.6179561538994965
sg173
F0.7830634748729647
sg174
F2.1220963070602643
sg175
F-0.9144340493245915
sg176
F0.0678218463683836
sg177
F-1.56638799626187
sg178
F0.7832276306404016
sg179
F0.8479674669025279
sg180
F-0.03905418523911001
sg181
F-0.7213126329111522
sg794
F0.014724414936037157
sg182
F-2165.7593713808606
sg795
F0.4408960003481577
sg53
F0.02183145062898919
sg796
F0.0515354522761302
sg235
F0.007362207468018579
sg236
F0.029448829872074315
sg237
F0.014724414936037157
sg238
F0.02208662240405578
sg243
F0.06625986721216727
sg240
F0.08834648961622311
sg241
F0.013074137087315977
sg242
F0.22086622404055783
sg184
F-1.179313139586339
sg42
F16.588415122882555
sg614
F0.02025800679618617
sg245
F0.06625986721216727
sg247
F0.06625986721216727
sg185
F-1.1537251368272243
sg186
F-1.950720963100157
sg187
F-0.5542007034474373
sg188
F-0.23841163992969147
sg189
F0.36014451197399544
sg190
F758.0924544215706
sg191
F-0.7195997540729492
sg192
F1.710107992714677
sg193
F-0.12966057214570287
sg194
F-0.1370063608251969
sg195
F0.046189028155965456
sg196
F-0.02706941425561249
sg197
F1.3884287889377926
sg58
F0.012802933381387821
sg198
F-1.5960402808264573
sg60
F148.48979603839197
sg251
F0.11043311202027892
sg252
F0.0736220746801858
sg616
F0.28402721079044707
sg797
F0.16058182912337224
sg606
F0.16849634576470462
sg617
F0.17344105002900678
sg618
F0.10985004527213849
sg619
F0.23786221920464093
sg620
F0.11888221638975612
sg798
F0.0036512803298355294
sg205
F-0.5689628694703486
sg799
F0.04146336885357153
sg800
F0.1626039278283281
sg801
F0.007362207468018579
sg209
F-98.48654628360227
sg75
F117.30589001374722
sg246
F0.014724414936037157
sg256
F0.11779531948829726
sg210
F0.7241215725904048
ss(g162
g2
tp840
(dp841
g5
F-1.095223815247248
sg6
F-870.3225180773331
sg7
F-0.023519664352286165
sg165
F-145.11158569516942
sg71
F-2.9144195032360787
sg12
F-2.784221203979887
sg167
F-0.4532054393358065
sg168
F-5.728541430061655
sg169
F0.9155220761002469
sg16
F-3.2243519081164482
sg17
F-3.347607435106545
sg172
F-1.3013728688983988
sg173
F-2.4196206676556082
sg174
F2.422403082899945
sg175
F1.3059288501216366
sg176
F0.5708248998425849
sg177
F3.0693394297335006
sg178
F2.7808469658678576
sg179
F0.4828793765748471
sg180
F2.068646543657158
sg181
F0.7001608238414441
sg28
F-2.1178146567179628
sg182
F-693.8433019240251
sg30
F-2.8957640537989193
sg31
F-0.5582719123620171
sg32
F-0.2699934855426951
sg33
F-1.5313125911152539
sg96
F-0.06242208033030729
sg35
F-0.8676441757850712
sg36
F-0.12259031022032617
sg37
F-0.45658143394413814
sg184
F1.5309390545297465
sg42
F-68.22170501703428
sg185
F2.0751206508354163
sg186
F2.2561972236658727
sg187
F2.068509766714759
sg188
F1.6984719118554794
sg189
F0.5991045260446369
sg190
F-345.2405143901349
sg191
F0.8105171970394716
sg192
F-0.17169123568208844
sg193
F0.10955460652968152
sg194
F0.1349791732273503
sg195
F0.019355686183296042
sg196
F0.02710599159296341
sg197
F-0.8034894002641617
sg198
F4.022475783232565
sg60
F-1139.5641343458637
sg110
F-0.023519664352286165
sg111
F-0.04703932870457233
sg64
F-1.6583526233154775
sg65
F-2.8403492955825014
sg13
F-1.1891366565614905
sg66
F-2.2966533861546448
sg67
F-1.2657045177773805
sg68
F-3.6228171010829993
sg69
F-0.8283793452755827
sg70
F-1.7675990975584932
sg205
F0.7916582218854755
sg72
F-4.449415272354007
sg73
F-3.7135518105839216
sg74
F-5.891382039565618
sg209
F2315.1480206625183
sg75
F-987.3829237096028
sg210
F1.0900302462530165
ss(g78
g162
tp842
(dp843
g6
F330.8650399228728
sg165
F788.6722657693703
sg166
F2.4751248268641697
sg167
F0.47056097983320494
sg168
F1.3920914936048785
sg169
F-0.6074872071399129
sg170
F1.9814264354610598
sg171
F3.8827437905645352
sg172
F1.1718537161913298
sg173
F2.18760976878351
sg174
F-2.572749133968518
sg175
F-1.4993247866070718
sg176
F-0.7815399419047554
sg177
F-1.913007675466223
sg178
F-2.2315347561109062
sg179
F-0.9214580547950064
sg180
F-2.0661551310962922
sg181
F-0.8218481040790009
sg182
F-1634.043234090772
sg84
F1.7416973249537424
sg95
F0.34912911792276047
sg82
F0.003770693063718473
sg183
F0.003770693063718473
sg97
F0.003770693063718473
sg184
F-1.188012832624228
sg42
F42.3162516299971
sg185
F2.969121234192047
sg186
F-0.9256684579063843
sg187
F-1.5508816650406807
sg188
F0.6926741867979423
sg189
F-0.32079111023123497
sg190
F504.2589877975644
sg191
F-0.7682754539771071
sg192
F3.3511117648360167
sg193
F-0.30165873846852637
sg194
F-0.32383866716142157
sg195
F-0.07434706214700978
sg196
F-0.14187695232965608
sg197
F0.9164785312695705
sg198
F-2.1007838201480937
sg60
F486.1570758999543
sg199
F0.9334692109779597
sg112
F1.8697095839270028
sg200
F0.15600657485786337
sg201
F0.49565275260369956
sg202
F0.4364994528880458
sg203
F0.10458929964497625
sg204
F0.30714084477236253
sg205
F-1.0024212834877726
sg206
F0.07099190934000078
sg207
F0.3921982084600917
sg208
F0.0817061630074076
sg209
F-273.14746481269077
sg75
F424.03763674513283
sg210
F5.47725940311592
ss(g321
g277
tp844
(dp845
g304
F-2.031250629676405
sg364
F0.019782228433514716
sg325
F21.145681092054254
sg365
F0.07291652089563545
sg327
F2.2958640096020555
sg328
F1.8566458796020402
sg329
F2.1765118271600623
sg330
F-0.8131077840547106
sg331
F0.5186971895620767
sg332
F-0.5018651474276248
sg288
F-0.44180424339751473
sg289
F-1.375611640575092
sg438
F-0.7029989442757568
sg290
F-0.5659384548471659
sg335
F1641.7540056182509
sg292
F-1.2663345470512817
sg433
F-0.23416635149957787
sg434
F-0.6654178815944352
sg435
F-0.4257100287056124
sg436
F-0.16855245463695365
sg337
F1.854665533358814
sg338
F-2855.0718171408766
sg339
F4.722891925150106
sg689
F1.375655277757754
sg367
F0.5374509532764057
sg341
F2.466991002397514
sg598
F0.1694684406960672
sg343
F0.9212420201716354
sg599
F0.3040449587398508
sg345
F0.4671465009342356
sg346
F0.029673342650272026
sg308
F-1.267031744755434
sg690
F-0.6861976248566608
sg42
F21.522503072308545
sg443
F-0.091047133979736
sg347
F1.1897720510643781
sg682
F-0.013433146173158966
sg336
F0.02671263195137088
sg446
F-1.401915732058884
sg301
F-1.7692414784194597
sg447
F-1.4627394090519
sg302
F-2.316640440790186
sg448
F-1.0602342024600224
sg349
F392.88143347437074
sg6
F582.8843898852106
sg691
F-1.545579827389306
sg450
F-0.01803594491786806
sg451
F-0.006486838503170093
sg530
F-0.0031842090317320115
sg305
F-2.0170073215315165
sg592
F-0.0014973594896264307
sg307
F-1.7903690672265833
sg60
F946.3165276116043
sg368
F0.10506879540318952
sg351
F0.26978482322641645
sg310
F2.54199418212698
sg353
F3.502483387362171
sg354
F3.7753981286238165
sg355
F2.3667756047595376
sg356
F5.8798177224141
sg357
F1.4523375256738593
sg358
F1.7938676526405255
sg359
F4.119457066105659
sg360
F2.4929341461063745
sg361
F3.542637650978343
sg75
F806.4125593059875
sg456
F-0.0787002791467761
sg684
F-2.095107630091861
ss(g162
g115
tp846
(dp847
g6
F-198.39564154242927
sg118
F102.64251344334485
sg569
F-0.06152714376141051
sg120
F-0.9639403295003112
sg168
F-0.14465188376585672
sg122
F-0.39321900635659784
sg169
F1.5129576071530784
sg124
F-0.7136792213589859
sg125
F-0.2600467351682881
sg126
F-1.130475600917941
sg127
F0.5346838148737407
sg128
F-1.7251262414117374
sg129
F-0.616482345275298
sg130
F1.4843370074885966
sg178
F3.795947963087691
sg132
F1655.5398916041415
sg133
F2.262065852869751
sg181
F0.9893538844718545
sg136
F-1121.204951780326
sg179
F0.8590836033434914
sg138
F-0.5883608777625043
sg42
F-2.520037646932031
sg175
F0.8711489654190707
sg141
F-2.50486108731828
sg142
F-0.2843457086739806
sg143
F-1.908696810658931
sg144
F-3.268786312448498
sg145
F-1.1194121445835903
sg146
F-11.378307213488739
sg147
F-0.4481221485887543
sg148
F-2.225931763608602
sg193
F0.3107247915023237
sg194
F0.2621356900255408
sg195
F0.057885496528749754
sg196
F0.07097854453936578
sg149
F0.8641653176606409
sg60
F-243.58607190863333
sg570
F-0.011327952799885178
sg571
F-0.0062722412403597464
sg572
F-0.028599507024088176
sg205
F1.2386338460629527
sg75
F-206.39666712781573
sg573
F-0.06621657846345885
sg161
F-2.260411571775338
ss(g211
g114
tp848
(dp849
g6
F-45.07089534574039
sg404
F-2513.2437102419262
sg214
F-2.812923496110778
sg152
F-1.0462615310345618
sg121
F-1.1816621318535656
sg405
F0.9342833110740896
sg216
F-1.294937710145117
sg406
F-1.0923469177255338
sg232
F-2.6537207842131294
sg407
F-1.7246854394092797
sg249
F-0.7519188410606487
sg408
F-0.3293739321502383
sg409
F1789.1966447140776
sg410
F0.5016794778856623
sg264
F-1.574205072409695e-10
sg411
F4.904855449569862
sg412
F0.11305453177927986
sg135
F-0.17672891367108948
sg413
F2391.873241666139
sg414
F-3.934223771824221e-09
sg218
F0.3836256236414856
sg415
F-4.917779714780276e-10
sg416
F0.19715071564692668
sg42
F-2.932829985818886
sg417
F-0.057799910898043406
sg418
F0.13071930236979218
sg419
F1.0465945776720431
sg420
F1.8389939968021765
sg421
F1.4019072743511083
sg422
F0.5984048847251326
sg248
F-0.1763108898705827
sg423
F1.083647786826656
sg424
F-0.7691502623538387
sg425
F3.4780029109229895
sg426
F0.4345286542470396
sg60
F-101.84099618548223
sg150
F-4.0027000227585745
sg151
F-0.1450437976552276
sg153
F-2.896739293399217
sg154
F1.2756382297953675
sg225
F3.8088924520711793
sg156
F-1.0652601346397974
sg427
F-0.24165610280264332
sg158
F4.592943729113672
sg227
F-0.892293244336451
sg160
F-0.6308831258707681
sg75
F-65.05733511097606
ss(g277
g78
tp850
(dp851
g203
F-0.03423860070716593
sg6
F-136.59518408023214
sg281
F-9.450429779699475
sg300
F3.597709876660481e-13
sg283
F-1.2631764129964855
sg312
F0.3158045472317286
sg284
F-0.18127382454963717
sg285
F-0.37651810915480155
sg286
F-0.24694500534463676
sg828
F-2.3740250472912052
sg288
F0.5425558280340156
sg289
F-1.142189386252086
sg86
F0.37152653963487003
sg290
F0.09495293330721952
sg291
F-2703.5881370257994
sg292
F0.1336463625047206
sg433
F0.23654311257414995
sg523
F0.6287770718003713
sg775
F0.05406412869293214
sg524
F-0.002729978239446753
sg293
F6.116106790322856e-12
sg294
F-2551.5112188898547
sg295
F-0.2337128754502646
sg296
F-0.21839080753917559
sg297
F3.597709876660481e-13
sg298
F-0.7475480889074592
sg82
F-0.0055604107382479645
sg299
F3.5977098766604834e-12
sg183
F-0.0055604107382479645
sg320
F5.39656481499069e-12
sg97
F-0.0055604107382479645
sg60
F-174.05659235258213
sg99
F0.44236114671367766
sg42
F-10.19664653574929
sg526
F0.07478280035368069
sg829
F0.048043321461576353
sg102
F-1.742042831088389
sg301
F1.3692855241447737
sg104
F0.18382679191137236
sg302
F0.7811762931521642
sg448
F1.0815705706634178
sg303
F3989.430916631606
sg304
F2.015496730375995
sg108
F-1.5835947162086121
sg830
F0.012343850870756767
sg831
F0.0030859627176891917
sg452
F0.0030859627176891917
sg305
F0.9293552281810283
sg307
F-0.00848341998760477
sg308
F1.238718380222068
sg309
F3.597709876660481e-13
sg310
F0.28617363486921205
sg112
F-1.7774284128616666
sg313
F-0.175484659992833
sg314
F-0.014026287546373509
sg315
F0.07768156753129188
sg316
F-0.002805257506222055
sg317
F-0.45282900587157016
sg282
F-0.022442060064167272
sg318
F-0.22016891441036576
sg319
F-1.0857367601685755
sg274
F-0.7475480889096179
sg75
F-182.49084607173546
sg531
F0.027968572504135245
sg778
F-1.3968409053938882
ss.